(lp0
S'w_10968'
p1
a(lp2
(cnumpy.core.multiarray
scalar
p3
(cnumpy
dtype
p4
(S'f8'
p5
I0
I1
tp6
Rp7
(I3
S'<'
p8
NNNI-1
I-1
I0
tp9
bS'\x88X]i\x87\xc0\x92@'
p10
tp11
Rp12
g3
(g7
S'2|6\x88\xd4|\x93@'
p13
tp14
Rp15
tp16
a(g3
(g7
S'J;\x94r\x1eA\xa1@'
p17
tp18
Rp19
g3
(g7
S'\xb89\x90h\x85\x9fs@'
p20
tp21
Rp22
tp23
aa(lp24
(g3
(g7
S'V_\xee\xd3\x91L}@'
p25
tp26
Rp27
g3
(g7
S'\xc0[e}\xb9cw@'
p28
tp29
Rp30
tp31
a(g3
(g7
S'j\x12.\xf3\xdf\x87y@'
p32
tp33
Rp34
g3
(g7
S'\xb29\x90h\x85g\x81@'
p35
tp36
Rp37
tp38
aa.