(lp0
S'w_10799'
p1
a(lp2
(cnumpy.core.multiarray
scalar
p3
(cnumpy
dtype
p4
(S'f8'
p5
I0
I1
tp6
Rp7
(I3
S'<'
p8
NNNI-1
I-1
I0
tp9
bS'\xc9q\x1c\xc7q\xf0\x8d@'
p10
tp11
Rp12
g3
(g7
S'\x00\x00\x00\x00\x80C\x93@'
p13
tp14
Rp15
tp16
a(g3
(g7
S'VUUUU\xf3\x99@'
p17
tp18
Rp19
g3
(g7
S'\xe68\x8e\xe38]\x81@'
p20
tp21
Rp22
tp23
aa(lp24
(g3
(g7
S'T\xce\x83\xc9w\x0bz@'
p25
tp26
Rp27
g3
(g7
S'\x1d\xc5\xec\xcf\x87q}@'
p28
tp29
Rp30
tp31
a(g3
(g7
S'|6\x88TS|v@'
p32
tp33
Rp34
g3
(g7
S'\xe6\xb9\xd0\x89Xor@'
p35
tp36
Rp37
tp38
aa.