(lp0
S'w_10334'
p1
a(lp2
(cnumpy.core.multiarray
scalar
p3
(cnumpy
dtype
p4
(S'f8'
p5
I0
I1
tp6
Rp7
(I3
S'<'
p8
NNNI-1
I-1
I0
tp9
bS'p\nM`xu\x91@'
p10
tp11
Rp12
g3
(g7
S'~\xdd\x14\x9a\xc0\x13\x92@'
p13
tp14
Rp15
tp16
a(g3
(g7
S'd\xfa8\x07I\x84\x9c@'
p17
tp18
Rp19
g3
(g7
S'\xa0\xc45\x03\x04\x81}@'
p20
tp21
Rp22
tp23
aa(lp24
(g3
(g7
S'\xac\x97\xfd<L\x7fs@'
p25
tp26
Rp27
g3
(g7
S"\xab\x15\xdbQ\xe6'q@"
p28
tp29
Rp30
tp31
a(g3
(g7
S'n\x88*u\x12ow@'
p32
tp33
Rp34
g3
(g7
S'\x80_7\x85&\xf4\x80@'
p35
tp36
Rp37
tp38
aa.