(lp0
S'w_10217'
p1
a(lp2
(cnumpy.core.multiarray
scalar
p3
(cnumpy
dtype
p4
(S'f8'
p5
I0
I1
tp6
Rp7
(I3
S'<'
p8
NNNI-1
I-1
I0
tp9
bS'\xff\xff\xff\xff\xbf\x18\x8e@'
p10
tp11
Rp12
g3
(g7
S'\xe48\x8e\xe3x\xba\x84@'
p13
tp14
Rp15
tp16
a(g3
(g7
S'TUUUU\xef\x96@'
p17
tp18
Rp19
g3
(g7
S'\xab\xaa\xaa\xaaJ\x0e\x91@'
p20
tp21
Rp22
tp23
aa(lp24
(g3
(g7
S'\xc5q\x1c\xc7q@o@'
p25
tp26
Rp27
g3
(g7
S'TUUUUeX@'
p28
tp29
Rp30
tp31
a(g3
(g7
S'7\x8e\xe38\x8e\x9fo@'
p32
tp33
Rp34
g3
(g7
S'UUUUU\xf7p@'
p35
tp36
Rp37
tp38
aa.