(lp0
S'w_10575'
p1
a(lp2
(cnumpy.core.multiarray
scalar
p3
(cnumpy
dtype
p4
(S'f8'
p5
I0
I1
tp6
Rp7
(I3
S'<'
p8
NNNI-1
I-1
I0
tp9
bS'\x1c\xc7q\x1c\x87(\x95@'
p10
tp11
Rp12
g3
(g7
S'p\x1c\xc7q<\x1e\x8b@'
p13
tp14
Rp15
tp16
a(g3
(g7
S'8\x8e\xe38\xee\xf2\x9f@'
p17
tp18
Rp19
g3
(g7
S'\x8c\xe38\x8e#\ts@'
p20
tp21
Rp22
tp23
aa(lp24
(g3
(g7
S'\xa9\xaa\xaa\xaa**u@'
p25
tp26
Rp27
g3
(g7
S'\xc8q\x1c\xc7\xf1\xc8f@'
p28
tp29
Rp30
tp31
a(g3
(g7
S'UUUU\x15&s@'
p32
tp33
Rp34
g3
(g7
S'9\x8e\xe38\xce\rz@'
p35
tp36
Rp37
tp38
aa.