(lp0
S'w_10246'
p1
a(lp2
(cnumpy.core.multiarray
scalar
p3
(cnumpy
dtype
p4
(S'f8'
p5
I0
I1
tp6
Rp7
(I3
S'<'
p8
NNNI-1
I-1
I0
tp9
bS'v\xd1E\x17]\x11\x9b@'
p10
tp11
Rp12
g3
(g7
S'8\x85&0\xbc\xe1\xa5@'
p13
tp14
Rp15
tp16
a(g3
(g7
S'\xd6I\\3\xc0\x96\xa5@'
p17
tp18
Rp19
g3
(g7
S'\xe9a\xfa8\x07\xfe\x97@'
p20
tp21
Rp22
tp23
aa(lp24
(g3
(g7
S'\x98{\x1aa\xb9\xcf\x83@'
p25
tp26
Rp27
g3
(g7
S'\xc2rO#,*\x88@'
p28
tp29
Rp30
tp31
a(g3
(g7
S'\x0c\xcb=\x8d\xb0b{@'
p32
tp33
Rp34
g3
(g7
S'|\x1aa\xb9\xa71q@'
p35
tp36
Rp37
tp38
aa.