(lp0
S'w_10002'
p1
a(lp2
(cnumpy.core.multiarray
scalar
p3
(cnumpy
dtype
p4
(S'f8'
p5
I0
I1
tp6
Rp7
(I3
S'<'
p8
NNNI-1
I-1
I0
tp9
bS'Rd\xbd\xec\xe7\xed\x8b@'
p10
tp11
Rp12
g3
(g7
S'\xfcy\x98>NP\x91@'
p13
tp14
Rp15
tp16
a(g3
(g7
S"\x88\xa8R'\xf1\x8c\x9c@"
p17
tp18
Rp19
g3
(g7
S'\x0c\x0c\xcf\x82cbs@'
p20
tp21
Rp22
tp23
aa(lp24
(g3
(g7
S'\xd8\x8e2\xff\xbeVu@'
p25
tp26
Rp27
g3
(g7
S'hCT\xa9\x93Dv@'
p28
tp29
Rp30
tp31
a(g3
(g7
S'\xd5I\\3@$\x80@'
p32
tp33
Rp34
g3
(g7
S'}\xdd\x14\x9a\xc0\x98}@'
p35
tp36
Rp37
tp38
aa.