(lp0
S'w_1053'
p1
a(lp2
(cnumpy.core.multiarray
scalar
p3
(cnumpy
dtype
p4
(S'f8'
p5
I0
I1
tp6
Rp7
(I3
S'<'
p8
NNNI-1
I-1
I0
tp9
bS'2\xbe-yW\xab\x94@'
p10
tp11
Rp12
g3
(g7
S'D\x95:\x89k\x04\x98@'
p13
tp14
Rp15
tp16
a(g3
(g7
S'`7\x85&0;\xa1@'
p17
tp18
Rp19
g3
(g7
S'\xc2\xaf\x9bB\x13\x14\x86@'
p20
tp21
Rp22
tp23
aa(lp24
(g3
(g7
S'2\x81\xe1YpVt@'
p25
tp26
Rp27
g3
(g7
S'\xa5\rQ\xa5N\x9e~@'
p28
tp29
Rp30
tp31
a(g3
(g7
S'&q\xcd\x00AS\x80@'
p32
tp33
Rp34
g3
(g7
S'\xb6!\xaa\xd4Ihr@'
p35
tp36
Rp37
tp38
aa.