(lp0
S'w_1034'
p1
a(lp2
(cnumpy.core.multiarray
scalar
p3
(cnumpy
dtype
p4
(S'f8'
p5
I0
I1
tp6
Rp7
(I3
S'<'
p8
NNNI-1
I-1
I0
tp9
bS'\x99{\x1aa\xb9\xb1\x95@'
p10
tp11
Rp12
g3
(g7
S'\xd4\x08\xcb=\x8d\x8e\x9c@'
p13
tp14
Rp15
tp16
a(g3
(g7
S'@\x8d\xb0\xdc\xd3\t\xa0@'
p17
tp18
Rp19
g3
(g7
S'$,\xf74\xc2\x9a\x91@'
p20
tp21
Rp22
tp23
aa(lp24
(g3
(g7
S'\x9a\xc0\xf0,8\xd0z@'
p25
tp26
Rp27
g3
(g7
S'\x83"\xebe?sx@'
p28
tp29
Rp30
tp31
a(g3
(g7
S'DT\xa9\x93\xb8nb@'
p32
tp33
Rp34
g3
(g7
S'\x9c\xc0\xf0,8vf@'
p35
tp36
Rp37
tp38
aa.