(lp0
S'w_10778'
p1
a(lp2
(cnumpy.core.multiarray
scalar
p3
(cnumpy
dtype
p4
(S'f8'
p5
I0
I1
tp6
Rp7
(I3
S'<'
p8
NNNI-1
I-1
I0
tp9
bS'\xfa\xfb\xba)\xb4{\x91@'
p10
tp11
Rp12
g3
(g7
S'\xece?\x0fS\xba\x91@'
p13
tp14
Rp15
tp16
a(g3
(g7
S'\x98\x01\x82"k\xcc\x99@'
p17
tp18
Rp19
g3
(g7
S'\xec\xe3\x1c$m;\x85@'
p20
tp21
Rp22
tp23
aa(lp24
(g3
(g7
S'!(\xb2^\xf6\xb1u@'
p25
tp26
Rp27
g3
(g7
S'\x9a>\xceA\xd2Ze@'
p28
tp29
Rp30
tp31
a(g3
(g7
S'\x8eoK\xdeU\x1bf@'
p32
tp33
Rp34
g3
(g7
S'\x94\xf9\xf7uS\xd4o@'
p35
tp36
Rp37
tp38
aa.