(lp0
S'w_10886'
p1
a(lp2
(cnumpy.core.multiarray
scalar
p3
(cnumpy
dtype
p4
(S'f8'
p5
I0
I1
tp6
Rp7
(I3
S'<'
p8
NNNI-1
I-1
I0
tp9
bS'\xb0\x19 (\xb2}\x91@'
p10
tp11
Rp12
g3
(g7
S'\x0f\xd3\xc79Hb\x92@'
p13
tp14
Rp15
tp16
a(g3
(g7
S'&,\xf74\xc2\x90\x9c@'
p17
tp18
Rp19
g3
(g7
S'\x84g\xc11\xbee~@'
p20
tp21
Rp22
tp23
aa(lp24
(g3
(g7
S'L\x1f\xe7 i\xb7v@'
p25
tp26
Rp27
g3
(g7
S'\xe8]\xb5b;\xe2a@'
p28
tp29
Rp30
tp31
a(g3
(g7
S'P#,\xf74Vs@'
p32
tp33
Rp34
g3
(g7
S'.8\xc6\xb7%\x1f|@'
p35
tp36
Rp37
tp38
aa.