(lp0
S'w_1077'
p1
a(lp2
(cnumpy.core.multiarray
scalar
p3
(cnumpy
dtype
p4
(S'f8'
p5
I0
I1
tp6
Rp7
(I3
S'<'
p8
NNNI-1
I-1
I0
tp9
bS'|[\xf2\xaeZ\x02\x94@'
p10
tp11
Rp12
g3
(g7
S'\xe8a\xfa8\x87F\x91@'
p13
tp14
Rp15
tp16
a(g3
(g7
S'V+\xb6\xa3\xcc+\x9f@'
p17
tp18
Rp19
g3
(g7
S'\xb6b;\xca\xfct\x80@'
p20
tp21
Rp22
tp23
aa(lp24
(g3
(g7
S'\xfc\xfb\xba)4\xd9v@'
p25
tp26
Rp27
g3
(g7
S'\x1c\xe3\xdb\x92w)o@'
p28
tp29
Rp30
tp31
a(g3
(g7
S'\x9c\x83\xa4\rQ?q@'
p32
tp33
Rp34
g3
(g7
S'\xd2E\x17]tIz@'
p35
tp36
Rp37
tp38
aa.