(lp0
S'w_10081'
p1
a(lp2
(cnumpy.core.multiarray
scalar
p3
(cnumpy
dtype
p4
(S'f8'
p5
I0
I1
tp6
Rp7
(I3
S'<'
p8
NNNI-1
I-1
I0
tp9
bS'TUUU\xd5Z\x8d@'
p10
tp11
Rp12
g3
(g7
S'\xab\xaa\xaa\xaa*\x91\x9b@'
p13
tp14
Rp15
tp16
a(g3
(g7
S'\xaa\xaa\xaa\xaaj\x87\x9c@'
p17
tp18
Rp19
g3
(g7
S'XUUUUn\x8b@'
p20
tp21
Rp22
tp23
aa(lp24
(g3
(g7
S'\xc4q\x1c\xc7\xf1\x02f@'
p25
tp26
Rp27
g3
(g7
S'\x1c\xc7q\x1c\xc7\xaev@'
p28
tp29
Rp30
tp31
a(g3
(g7
S'\xab\xaa\xaa\xaa\n&\x81@'
p32
tp33
Rp34
g3
(g7
S'VUUUU\x88z@'
p35
tp36
Rp37
tp38
aa.