(lp0
S'w_10277'
p1
a(lp2
(cnumpy.core.multiarray
scalar
p3
(cnumpy
dtype
p4
(S'f8'
p5
I0
I1
tp6
Rp7
(I3
S'<'
p8
NNNI-1
I-1
I0
tp9
bS"\x8e\xe38\x8e\xa3'\x91@"
p10
tp11
Rp12
g3
(g7
S'x\x1c\xc7q\x1c|s@'
p13
tp14
Rp15
tp16
a(g3
(g7
S'\xe28\x8e\xe3\xf8=\x9e@'
p17
tp18
Rp19
g3
(g7
S':\x8e\xe38\x8e,\x87@'
p20
tp21
Rp22
tp23
aa(lp24
(g3
(g7
S'\x84r0(\x07[t@'
p25
tp26
Rp27
g3
(g7
S'FDDDD\xd4c@'
p28
tp29
Rp30
tp31
a(g3
(g7
S'.\x1d\xdb\xd2\xb1\x01\x80@'
p32
tp33
Rp34
g3
(g7
S'\xe7\xfea\xee\x1f\xbeq@'
p35
tp36
Rp37
tp38
aa.