(lp0
S'w_10830'
p1
a(lp2
(cnumpy.core.multiarray
scalar
p3
(cnumpy
dtype
p4
(S'f8'
p5
I0
I1
tp6
Rp7
(I3
S'<'
p8
NNNI-1
I-1
I0
tp9
bS'vSh\x02CU\x91@'
p10
tp11
Rp12
g3
(g7
S'\x96{\x1aa9\xee\x91@'
p13
tp14
Rp15
tp16
a(g3
(g7
S'\x0c\x8e\xf1m\xc9u\x9e@'
p17
tp18
Rp19
g3
(g7
S'\xb8b;\xca\xfc\xc3x@'
p20
tp21
Rp22
tp23
aa(lp24
(g3
(g7
S'>\xceA\xd2\x86\x1ax@'
p25
tp26
Rp27
g3
(g7
S'\xbaf\x80\xa0\xc8rp@'
p28
tp29
Rp30
tp31
a(g3
(g7
S'\x82\xa4\rQ\xa5Fw@'
p32
tp33
Rp34
g3
(g7
S'\xfa\xb6\xe4]\xb5R}@'
p35
tp36
Rp37
tp38
aa.