(lp0
S'w_10943'
p1
a(lp2
(cnumpy.core.multiarray
scalar
p3
(cnumpy
dtype
p4
(S'f8'
p5
I0
I1
tp6
Rp7
(I3
S'<'
p8
NNNI-1
I-1
I0
tp9
bS'7\x07I\x1b\xa2,\x94@'
p10
tp11
Rp12
g3
(g7
S'\xc8\xf8\xb6\xe4]?\x95@'
p13
tp14
Rp15
tp16
a(g3
(g7
S'\x08\x8a\xac\x97}J\xa0@'
p17
tp18
Rp19
g3
(g7
S'H\x17]t\xd1\x11\x82@'
p20
tp21
Rp22
tp23
aa(lp24
(g3
(g7
S'\xf84\xc2rOa\x7f@'
p25
tp26
Rp27
g3
(g7
S'HX\xeei\x84\x81u@'
p28
tp29
Rp30
tp31
a(g3
(g7
S'\xc2rO#,Gr@'
p32
tp33
Rp34
g3
(g7
S'\x1ca\xb9\xa7\x11\xc4z@'
p35
tp36
Rp37
tp38
aa.