(lp0
S'w_10677'
p1
a(lp2
(cnumpy.core.multiarray
scalar
p3
(cnumpy
dtype
p4
(S'f8'
p5
I0
I1
tp6
Rp7
(I3
S'<'
p8
NNNI-1
I-1
I0
tp9
bS'VUUU\xb5W\x96@'
p10
tp11
Rp12
g3
(g7
S'9\x8e\xe38\x8eU\x92@'
p13
tp14
Rp15
tp16
a(g3
(g7
S':\x8e\xe38\x1e:\x9f@'
p17
tp18
Rp19
g3
(g7
S'VUUU\x95N\x85@'
p20
tp21
Rp22
tp23
aa(lp24
(g3
(g7
S'\xff\xff\xff\xff\xff\xb6v@'
p25
tp26
Rp27
g3
(g7
S'\xab\xaa\xaa\xaa\xaa\x1er@'
p28
tp29
Rp30
tp31
a(g3
(g7
S'TUUUU3m@'
p32
tp33
Rp34
g3
(g7
S'\x02\x00\x00\x00\x00\x90i@'
p35
tp36
Rp37
tp38
aa.