(lp0
S'w_10373'
p1
a(lp2
(cnumpy.core.multiarray
scalar
p3
(cnumpy
dtype
p4
(S'f8'
p5
I0
I1
tp6
Rp7
(I3
S'<'
p8
NNNI-1
I-1
I0
tp9
bS'\xcf\x00A\x91u8\x98@'
p10
tp11
Rp12
g3
(g7
S'\xb0Z\xb1\x1d\xe5\x9c\x9c@'
p13
tp14
Rp15
tp16
a(g3
(g7
S'\xe8a\xfa8G\x82\xa2@'
p17
tp18
Rp19
g3
(g7
S'\xc0n\nM`\x12\x8d@'
p20
tp21
Rp22
tp23
aa(lp24
(g3
(g7
S'\x8c6D\x95:ij@'
p25
tp26
Rp27
g3
(g7
S'x\xd5\x8a\xed(\xe7\x84@'
p28
tp29
Rp30
tp31
a(g3
(g7
S'n\x0e\x926D;y@'
p32
tp33
Rp34
g3
(g7
S'2}\x9c\x83\xa4Ay@'
p35
tp36
Rp37
tp38
aa.