(lp0
S'w_10691'
p1
a(lp2
(cnumpy.core.multiarray
scalar
p3
(cnumpy
dtype
p4
(S'f8'
p5
I0
I1
tp6
Rp7
(I3
S'<'
p8
NNNI-1
I-1
I0
tp9
bS'\x1c\xc7q\x1c\x07N\x95@'
p10
tp11
Rp12
g3
(g7
S'VUUU\x95>\x98@'
p13
tp14
Rp15
tp16
a(g3
(g7
S'\xe48\x8e\xe3\x18\x9b\xa1@'
p17
tp18
Rp19
g3
(g7
S'VUUU\xd5\xb5\x86@'
p20
tp21
Rp22
tp23
aa(lp24
(g3
(g7
S'\xfe\xff\xff\xff\xbf;p@'
p25
tp26
Rp27
g3
(g7
S'\x01\x00\x00\x00\x80\xa8\x7f@'
p28
tp29
Rp30
tp31
a(g3
(g7
S'TUUUU\xfa\x83@'
p32
tp33
Rp34
g3
(g7
S'VUUU\xd5hr@'
p35
tp36
Rp37
tp38
aa.