(lp0
S'w_10424'
p1
a(lp2
(cnumpy.core.multiarray
scalar
p3
(cnumpy
dtype
p4
(S'f8'
p5
I0
I1
tp6
Rp7
(I3
S'<'
p8
NNNI-1
I-1
I0
tp9
bS'\xdc(f\x7f>&\x8f@'
p10
tp11
Rp12
g3
(g7
S'\x04\x89V\xd8\x9c\xa0\x99@'
p13
tp14
Rp15
tp16
a(g3
(g7
S';\x96\xf7j\x8b]\xa1@'
p17
tp18
Rp19
g3
(g7
S'\x88\xc7\xf2^m\xabz@'
p20
tp21
Rp22
tp23
aa(lp24
(g3
(g7
S'N\xc4\xeaJ;L{@'
p25
tp26
Rp27
g3
(g7
S'\x9a\xff~\xbdY\n\x8a@'
p28
tp29
Rp30
tp31
a(g3
(g7
S'\xa1\x94\xf3`\xf2\xa9\x85@'
p32
tp33
Rp34
g3
(g7
S'N\xbc\xd6\x18>gz@'
p35
tp36
Rp37
tp38
aa.