(lp0
S'w_11199'
p1
a(lp2
(cnumpy.core.multiarray
scalar
p3
(cnumpy
dtype
p4
(S'f8'
p5
I0
I1
tp6
Rp7
(I3
S'<'
p8
NNNI-1
I-1
I0
tp9
bS'\xa4\x9e\x8c\xdf\xae\x99\xa0@'
p10
tp11
Rp12
g3
(g7
S'\xe14\x84Jz\x07\xa1@'
p13
tp14
Rp15
tp16
a(g3
(g7
S'x\xb3\xc0ate\xab@'
p17
tp18
Rp19
g3
(g7
S'\x80>\x9c\x86P\xd4\x83@'
p20
tp21
Rp22
tp23
aa(lp24
(g3
(g7
S'\x0c$Zas:\x8d@'
p25
tp26
Rp27
g3
(g7
S'\x10$Zas\xb7\x85@'
p28
tp29
Rp30
tp31
a(g3
(g7
S'\xe0\xb7K=\x19\xdb{@'
p32
tp33
Rp34
g3
(g7
S'\xf7d\xfcv\xa9j\x87@'
p35
tp36
Rp37
tp38
aa.