(lp0
S'w_11296'
p1
a(lp2
(cnumpy.core.multiarray
scalar
p3
(cnumpy
dtype
p4
(S'f8'
p5
I0
I1
tp6
Rp7
(I3
S'<'
p8
NNNI-1
I-1
I0
tp9
bS'UUUUer\xa0@'
p10
tp11
Rp12
g3
(g7
S'\x8e\xe38\x8ec\xbf\x96@'
p13
tp14
Rp15
tp16
a(g3
(g7
S'UUUU\xc5@\xa6@'
p17
tp18
Rp19
g3
(g7
S'\xac\xaa\xaa\xaaj\x14\x8b@'
p20
tp21
Rp22
tp23
aa(lp24
(g3
(g7
S'\xcaq\x1c\xc7\xf1~\x7f@'
p25
tp26
Rp27
g3
(g7
S'\x1d\xc7q\x1cG\x8ct@'
p28
tp29
Rp30
tp31
a(g3
(g7
S'\x1e\xc7q\x1c\x07/t@'
p32
tp33
Rp34
g3
(g7
S'\x1c\xc7q\x1cGkk@'
p35
tp36
Rp37
tp38
aa.