(lp0
S'w_11359'
p1
a(lp2
(cnumpy.core.multiarray
scalar
p3
(cnumpy
dtype
p4
(S'f8'
p5
I0
I1
tp6
Rp7
(I3
S'<'
p8
NNNI-1
I-1
I0
tp9
bS'\x9e\xc8z\xd9\xcf4\x86@'
p10
tp11
Rp12
g3
(g7
S'\xe8 iC\xd4\x1e\x93@'
p13
tp14
Rp15
tp16
a(g3
(g7
S'^7\x85&\xb0\xde\x94@'
p17
tp18
Rp19
g3
(g7
S'P\xe2\x9a\x01\x82\x90\x81@'
p20
tp21
Rp22
tp23
aa(lp24
(g3
(g7
S'|\x9c\x83\xa4\r\xb5d@'
p25
tp26
Rp27
g3
(g7
S'^\xb5b;\xca\xd0s@'
p28
tp29
Rp30
tp31
a(g3
(g7
S',u\x12\xd7\x0c\x8cw@'
p32
tp33
Rp34
g3
(g7
S'_\xf6\xf30}Zu@'
p35
tp36
Rp37
tp38
aa.