(lp0
S'w_11269'
p1
a(lp2
(cnumpy.core.multiarray
scalar
p3
(cnumpy
dtype
p4
(S'f8'
p5
I0
I1
tp6
Rp7
(I3
S'<'
p8
NNNI-1
I-1
I0
tp9
bS'0\xba\xe8\xa2\x8b\xb4\x86@'
p10
tp11
Rp12
g3
(g7
S'\xa2\x8b.\xba\xe8y\x8e@'
p13
tp14
Rp15
tp16
a(g3
(g7
S'\xd1E\x17]\xf4\x9a\x96@'
p17
tp18
Rp19
g3
(g7
S't\xd1E\x17],s@'
p20
tp21
Rp22
tp23
aa(lp24
(g3
(g7
S'\xaa\xd4I\\3\x14p@'
p25
tp26
Rp27
g3
(g7
S'\x84\xe5\x9eFX"m@'
p28
tp29
Rp30
tp31
a(g3
(g7
S'>\x8d\xb0\xdc\xd3\xc6|@'
p32
tp33
Rp34
g3
(g7
S'\xfa\xf7uSh\x98v@'
p35
tp36
Rp37
tp38
aa.