(lp0
S'w_11300'
p1
a(lp2
(cnumpy.core.multiarray
scalar
p3
(cnumpy
dtype
p4
(S'f8'
p5
I0
I1
tp6
Rp7
(I3
S'<'
p8
NNNI-1
I-1
I0
tp9
bS'\xd8M\xa1\t\x0c#\x91@'
p10
tp11
Rp12
g3
(g7
S'\x0b\x8e\xf1m\xc9\x98\x92@'
p13
tp14
Rp15
tp16
a(g3
(g7
S'8\x85&0<\xfd\x9d@'
p17
tp18
Rp19
g3
(g7
S'8H\xda\x10U\xf6\x7f@'
p20
tp21
Rp22
tp23
aa(lp24
(g3
(g7
S'&\xae\x19 (\x1cw@'
p25
tp26
Rp27
g3
(g7
S'y\xd5\x8a\xed(\x07r@'
p28
tp29
Rp30
tp31
a(g3
(g7
S'R\xe6\xdf\xd7MGv@'
p32
tp33
Rp34
g3
(g7
S'\xc7\xb7%\xef\xaa\xd5}@'
p35
tp36
Rp37
tp38
aa.