(lp0
S'w_11028'
p1
a(lp2
(cnumpy.core.multiarray
scalar
p3
(cnumpy
dtype
p4
(S'f8'
p5
I0
I1
tp6
Rp7
(I3
S'<'
p8
NNNI-1
I-1
I0
tp9
bS'8\x8e\xe38\x8ez\x96@'
p10
tp11
Rp12
g3
(g7
S'TUUU\x15\xc6\x8f@'
p13
tp14
Rp15
tp16
a(g3
(g7
S'UUUUm\xf1\xa0@'
p17
tp18
Rp19
g3
(g7
S'TUUU\xd5\x06v@'
p20
tp21
Rp22
tp23
aa(lp24
(g3
(g7
S'\xc7q\x1c\xc7q\xf9\x80@'
p25
tp26
Rp27
g3
(g7
S'\x1d\xc7q\x1c\xc7\xf3v@'
p28
tp29
Rp30
tp31
a(g3
(g7
S'TUUUU\x83p@'
p32
tp33
Rp34
g3
(g7
S'\xc8q\x1c\xc7q\x8cq@'
p35
tp36
Rp37
tp38
aa.