(lp0
S'w_1263'
p1
a(lp2
(cnumpy.core.multiarray
scalar
p3
(cnumpy
dtype
p4
(S'f8'
p5
I0
I1
tp6
Rp7
(I3
S'<'
p8
NNNI-1
I-1
I0
tp9
bS'\xd0\xc3\xf4q\x0e\x8e\x8e@'
p10
tp11
Rp12
g3
(g7
S'$,\xf74\xc2p\x93@'
p13
tp14
Rp15
tp16
a(g3
(g7
S'$,\xf74\xc2p\x9b@'
p17
tp18
Rp19
g3
(g7
S'\xa8\rQ\xa5N\xdaz@'
p20
tp21
Rp22
tp23
aa(lp24
(g3
(g7
S'\xb2\x1de\xfe}?\x80@'
p25
tp26
Rp27
g3
(g7
S'\x8c\xed(\xf3\xefUz@'
p28
tp29
Rp30
tp31
a(g3
(g7
S'\x10\xd3\xc79H\xaal@'
p32
tp33
Rp34
g3
(g7
S'\x00=L\x1f\xe7<y@'
p35
tp36
Rp37
tp38
aa.