(lp0
S'w_1215'
p1
a(lp2
(cnumpy.core.multiarray
scalar
p3
(cnumpy
dtype
p4
(S'f8'
p5
I0
I1
tp6
Rp7
(I3
S'<'
p8
NNNI-1
I-1
I0
tp9
bS'$\xaa\xd4I\\\xe3\x85@'
p10
tp11
Rp12
g3
(g7
S'\x97\xbc\xabVl\xe9\x93@'
p13
tp14
Rp15
tp16
a(g3
(g7
S'\x1b (\xb2^n\x96@'
p17
tp18
Rp19
g3
(g7
S' \xe7 iC\x9c\x7f@'
p20
tp21
Rp22
tp23
aa(lp24
(g3
(g7
S'\xacVlG\x99?a@'
p25
tp26
Rp27
g3
(g7
S'h\xc11\xbe-\xf9q@'
p28
tp29
Rp30
tp31
a(g3
(g7
S'\xf8uSh\x02]{@'
p32
tp33
Rp34
g3
(g7
S'\xe5\x1c$m\x88xx@'
p35
tp36
Rp37
tp38
aa.