(lp0
S'w_1271'
p1
a(lp2
(cnumpy.core.multiarray
scalar
p3
(cnumpy
dtype
p4
(S'f8'
p5
I0
I1
tp6
Rp7
(I3
S'<'
p8
NNNI-1
I-1
I0
tp9
bS'UUUUUS\x94@'
p10
tp11
Rp12
g3
(g7
S'9\x8e\xe38\x8e\xe1\x9f@'
p13
tp14
Rp15
tp16
a(g3
(g7
S'\x8d\xe38\x8e\xe36\x9d@'
p17
tp18
Rp19
g3
(g7
S'9\x8e\xe38\x8ea\x99@'
p20
tp21
Rp22
tp23
aa(lp24
(g3
(g7
S'\x1b\xc7q\x1c\xc7qv@'
p25
tp26
Rp27
g3
(g7
S'9\x8e\xe38\x8eKr@'
p28
tp29
Rp30
tp31
a(g3
(g7
S'TUUUU\x85c@'
p32
tp33
Rp34
g3
(g7
S'\x1c\xc7q\x1c\xc7Ac@'
p35
tp36
Rp37
tp38
aa.