(lp0
S'w_1392'
p1
a(lp2
(cnumpy.core.multiarray
scalar
p3
(cnumpy
dtype
p4
(S'f8'
p5
I0
I1
tp6
Rp7
(I3
S'<'
p8
NNNI-1
I-1
I0
tp9
bS'\xe38\x8e\xe38\x8c\x97@'
p10
tp11
Rp12
g3
(g7
S'VUUUUQ\x8b@'
p13
tp14
Rp15
tp16
a(g3
(g7
S'TUUUUT\xa0@'
p17
tp18
Rp19
g3
(g7
S'\xe48\x8e\xe38\x86u@'
p20
tp21
Rp22
tp23
aa(lp24
(g3
(g7
S'\xac\xaa\xaa\xaa\xaa\xb6j@'
p25
tp26
Rp27
g3
(g7
S'r\x1c\xc7q\x1c\xbam@'
p28
tp29
Rp30
tp31
a(g3
(g7
S'UUUUU\x91s@'
p32
tp33
Rp34
g3
(g7
S'\xe48\x8e\xe38-s@'
p35
tp36
Rp37
tp38
aa.