(lp0
S'w_1345'
p1
a(lp2
(cnumpy.core.multiarray
scalar
p3
(cnumpy
dtype
p4
(S'f8'
p5
I0
I1
tp6
Rp7
(I3
S'<'
p8
NNNI-1
I-1
I0
tp9
bS'\xc4o\x97z2b\x8b@'
p10
tp11
Rp12
g3
(g7
S'\xc0]\xea\xc9x\x03\x98@'
p13
tp14
Rp15
tp16
a(g3
(g7
S'#Zas \xa9\x9d@'
p17
tp18
Rp19
g3
(g7
S'\xde\xa5\x9e\x8c\xdfI\x85@'
p20
tp21
Rp22
tp23
aa(lp24
(g3
(g7
S'-l\x0e$Z\xe9\x85@'
p25
tp26
Rp27
g3
(g7
S'fs \xd1\new@'
p28
tp29
Rp30
tp31
a(g3
(g7
S'\xc6\xe6@\xa2\x15Ry@'
p32
tp33
Rp34
g3
(g7
S'(Zas ;x@'
p35
tp36
Rp37
tp38
aa.