(lp0
S'w_156'
p1
a(lp2
(cnumpy.core.multiarray
scalar
p3
(cnumpy
dtype
p4
(S'f8'
p5
I0
I1
tp6
Rp7
(I3
S'<'
p8
NNNI-1
I-1
I0
tp9
bS'X\xe00z\xb1\x93\x83@'
p10
tp11
Rp12
g3
(g7
S'z.t"V~\x9c@'
p13
tp14
Rp15
tp16
a(g3
(g7
S'\xad\xb2\xbe\xdc\xa7-\x97@'
p17
tp18
Rp19
g3
(g7
S'\x9c~<\x17:C\x8f@'
p20
tp21
Rp22
tp23
aa(lp24
(g3
(g7
S'\x86\xcd\x81D+\xd8y@'
p25
tp26
Rp27
g3
(g7
S'\x06\x8d`q\x9b#\x80@'
p28
tp29
Rp30
tp31
a(g3
(g7
S'\xf5`\xf2\xdd*\xa5\x80@'
p32
tp33
Rp34
g3
(g7
S'\xf0RO\xc6o\xfdq@'
p35
tp36
Rp37
tp38
aa.