(lp0
S'w_1658'
p1
a(lp2
(cnumpy.core.multiarray
scalar
p3
(cnumpy
dtype
p4
(S'f8'
p5
I0
I1
tp6
Rp7
(I3
S'<'
p8
NNNI-1
I-1
I0
tp9
bS'zW\xad\xd8\x8e\xc8\x91@'
p10
tp11
Rp12
g3
(g7
S'u\x94\xf9\xf7u\x93\x91@'
p13
tp14
Rp15
tp16
a(g3
(g7
S'v\x90\xb4!\xaaS\x9c@'
p17
tp18
Rp19
g3
(g7
S'\x1a$m\x88*-\x81@'
p20
tp21
Rp22
tp23
aa(lp24
(g3
(g7
S'\xd7M\xa1\t\x0c[r@'
p25
tp26
Rp27
g3
(g7
S"'0<\x0b\x8eMv@"
p28
tp29
Rp30
tp31
a(g3
(g7
S'\x93\xf9\xf7uS\xf2u@'
p32
tp33
Rp34
g3
(g7
S'^t\xd1E\x17\xb5k@'
p35
tp36
Rp37
tp38
aa.