(lp0
S'w_1643'
p1
a(lp2
(cnumpy.core.multiarray
scalar
p3
(cnumpy
dtype
p4
(S'f8'
p5
I0
I1
tp6
Rp7
(I3
S'<'
p8
NNNI-1
I-1
I0
tp9
bS"w\xa9'\xe3\xb7%\x92@"
p10
tp11
Rp12
g3
(g7
S't \xd1\n\x9b\xaa\x9b@'
p13
tp14
Rp15
tp16
a(g3
(g7
S'\x94\xf1\xdb\xa5\x9e\xd0\xa0@'
p17
tp18
Rp19
g3
(g7
S'\xe2.\xf5d\xfc\\\x82@'
p20
tp21
Rp22
tp23
aa(lp24
(g3
(g7
S'\xd6\x12\xaf5\x86\t\x85@'
p25
tp26
Rp27
g3
(g7
S'\r\x1cF/vV\x86@'
p28
tp29
Rp30
tp31
a(g3
(g7
S'X\xd2\x8db\xf6Ky@'
p32
tp33
Rp34
g3
(g7
S'\x10$Zas\xd7\x80@'
p35
tp36
Rp37
tp38
aa.