(lp0
S'w_1637'
p1
a(lp2
(cnumpy.core.multiarray
scalar
p3
(cnumpy
dtype
p4
(S'f8'
p5
I0
I1
tp6
Rp7
(I3
S'<'
p8
NNNI-1
I-1
I0
tp9
bS'H\x9d\xc45\x03\t\x87@'
p10
tp11
Rp12
g3
(g7
S'<\x89k\x06\x08\x88\x91@'
p13
tp14
Rp15
tp16
a(g3
(g7
S'M\xe2\x9a\x01\x02\x98\x96@'
p17
tp18
Rp19
g3
(g7
S'(\xe7 iC\xe8x@'
p20
tp21
Rp22
tp23
aa(lp24
(g3
(g7
S'\x14Y/\xfby\x88m@'
p25
tp26
Rp27
g3
(g7
S'b\xb9\xa7\x11\x96k}@'
p28
tp29
Rp30
tp31
a(g3
(g7
S'\xfa8\x07I\x1b\x82|@'
p32
tp33
Rp34
g3
(g7
S'\x0cM`x\x16\xdcv@'
p35
tp36
Rp37
tp38
aa.