(lp0
S'w_1707'
p1
a(lp2
(cnumpy.core.multiarray
scalar
p3
(cnumpy
dtype
p4
(S'f8'
p5
I0
I1
tp6
Rp7
(I3
S'<'
p8
NNNI-1
I-1
I0
tp9
bS'X\xde\xab-r\x9b\x91@'
p10
tp11
Rp12
g3
(g7
S'7\x88TS\xd0\x06\x92@'
p13
tp14
Rp15
tp16
a(g3
(g7
S'>!\xd3\x8f\xe7@\x9f@'
p17
tp18
Rp19
g3
(g7
S'\x00\xec\xcd\x02\x87\xc9{@'
p20
tp21
Rp22
tp23
aa(lp24
(g3
(g7
S'\xd6\x9b\x05\x0e\xa3\xbf~@'
p25
tp26
Rp27
g3
(g7
S's\x99\xff~\xbd\xebq@'
p28
tp29
Rp30
tp31
a(g3
(g7
S'@+l\x0e$zj@'
p32
tp33
Rp34
g3
(g7
S'@\x9c\x86PIAv@'
p35
tp36
Rp37
tp38
aa.