(lp0
S'w_1789'
p1
a(lp2
(cnumpy.core.multiarray
scalar
p3
(cnumpy
dtype
p4
(S'f8'
p5
I0
I1
tp6
Rp7
(I3
S'<'
p8
NNNI-1
I-1
I0
tp9
bS'.\xf74\xc2rM\x97@'
p10
tp11
Rp12
g3
(g7
S'\xfc8\x07I\x1b\x9az@'
p13
tp14
Rp15
tp16
a(g3
(g7
S'\xc6v\x94\xf9\xf7s\x9f@'
p17
tp18
Rp19
g3
(g7
S'\x00|\x1aa\xb9\xa7 @'
p20
tp21
Rp22
tp23
aa(lp24
(g3
(g7
S'\xc0n\nM`\x8e|@'
p25
tp26
Rp27
g3
(g7
S'\x90>\xceA\xd2\x86?@'
p28
tp29
Rp30
tp31
a(g3
(g7
S'\x10\x10\x14Y/\xd7h@'
p32
tp33
Rp34
g3
(g7
S'\xa9\xd4I\\3dn@'
p35
tp36
Rp37
tp38
aa.