(lp0
S'w_1733'
p1
a(lp2
(cnumpy.core.multiarray
scalar
p3
(cnumpy
dtype
p4
(S'f8'
p5
I0
I1
tp6
Rp7
(I3
S'<'
p8
NNNI-1
I-1
I0
tp9
bS' ,\xf74\xc2\x84p@'
p10
tp11
Rp12
g3
(g7
S"|\x1aa\xb9'\xd2\x9c@"
p13
tp14
Rp15
tp16
a(g3
(g7
S'O#,\xf7\xb4\x9a\x92@'
p17
tp18
Rp19
g3
(g7
S'|\x1aa\xb9\xa7l\x8c@'
p20
tp21
Rp22
tp23
aa(lp24
(g3
(g7
S'\xc1rO#,\xea\x80@'
p25
tp26
Rp27
g3
(g7
S'tO#,\xf7\x15\x82@'
p28
tp29
Rp30
tp31
a(g3
(g7
S'qO#,\xf7H\x80@'
p32
tp33
Rp34
g3
(g7
S'T#,\xf74vk@'
p35
tp36
Rp37
tp38
aa.