(lp0
S'w_1879'
p1
a(lp2
(cnumpy.core.multiarray
scalar
p3
(cnumpy
dtype
p4
(S'f8'
p5
I0
I1
tp6
Rp7
(I3
S'<'
p8
NNNI-1
I-1
I0
tp9
bS'\xc4rO#,w\x8e@'
p10
tp11
Rp12
g3
(g7
S'\xc2rO#,\x99\x90@'
p13
tp14
Rp15
tp16
a(g3
(g7
S'HX\xeei\x84\xf3\x98@'
p17
tp18
Rp19
g3
(g7
S'\x90\xb0\xdc\xd3\x08#v@'
p20
tp21
Rp22
tp23
aa(lp24
(g3
(g7
S'\xc65\x03\x04E\x8e{@'
p25
tp26
Rp27
g3
(g7
S'\xc0j\xc5v\x94\xe9c@'
p28
tp29
Rp30
tp31
a(g3
(g7
S'x\x94\xf9\xf7u\x83f@'
p32
tp33
Rp34
g3
(g7
S'\x19\x9e\x05\xc7\xf8\x86v@'
p35
tp36
Rp37
tp38
aa.