(lp0
S'w_1894'
p1
a(lp2
(cnumpy.core.multiarray
scalar
p3
(cnumpy
dtype
p4
(S'f8'
p5
I0
I1
tp6
Rp7
(I3
S'<'
p8
NNNI-1
I-1
I0
tp9
bS'\xf74\xc2r\xcf\xd4\x97@'
p10
tp11
Rp12
g3
(g7
S'#,\xf74Bc\x96@'
p13
tp14
Rp15
tp16
a(g3
(g7
S'\x1aa\xb9\xa7\x91?\xa2@'
p17
tp18
Rp19
g3
(g7
S'rO#,\xf7\xab\x88@'
p20
tp21
Rp22
tp23
aa(lp24
(g3
(g7
S'r\xd1E\x17]nr@'
p25
tp26
Rp27
g3
(g7
S'\x00\x00\x00\x00\x00\x10t@'
p28
tp29
Rp30
tp31
a(g3
(g7
S'\x06\x0c\xcf\x82c|{@'
p32
tp33
Rp34
g3
(g7
S'\xa7\xd0\x04\x86g\xc9x@'
p35
tp36
Rp37
tp38
aa.