(lp0
S'w_1870'
p1
a(lp2
(cnumpy.core.multiarray
scalar
p3
(cnumpy
dtype
p4
(S'f8'
p5
I0
I1
tp6
Rp7
(I3
S'<'
p8
NNNI-1
I-1
I0
tp9
bS'\x10\xd3\xc79H\xd8\x90@'
p10
tp11
Rp12
g3
(g7
S'\xc1\xf0,8\xc6\xb5\x99@'
p13
tp14
Rp15
tp16
a(g3
(g7
S'"(\xb2^\xf6\xf1\x9c@'
p17
tp18
Rp19
g3
(g7
S'\xc2\xf0,8\xc6\xb3\x85@'
p20
tp21
Rp22
tp23
aa(lp24
(g3
(g7
S'\xacR\'q\xcd"z@'
p25
tp26
Rp27
g3
(g7
S' (\xb2^\xf6K\x86@'
p28
tp29
Rp30
tp31
a(g3
(g7
S'$iCT\xa9\xefp@'
p32
tp33
Rp34
g3
(g7
S'\xb2\x1de\xfe}\xdbr@'
p35
tp36
Rp37
tp38
aa.