(lp0
S'w_1892'
p1
a(lp2
(cnumpy.core.multiarray
scalar
p3
(cnumpy
dtype
p4
(S'f8'
p5
I0
I1
tp6
Rp7
(I3
S'<'
p8
NNNI-1
I-1
I0
tp9
bS'\x0c\x9f\r"\xd5\xdcx@'
p10
tp11
Rp12
g3
(g7
S'\x1d\xc7q\x1c\xc7\xd9\x9c@'
p13
tp14
Rp15
tp16
a(g3
(g7
S'*l\x0e$ZW\x95@'
p17
tp18
Rp19
g3
(g7
S'H+l\x0e$\xda\x87@'
p20
tp21
Rp22
tp23
aa(lp24
(g3
(g7
S"\x00w\xa9'\xe3\xabv@"
p25
tp26
Rp27
g3
(g7
S'`g\x02\x06\x8fgy@'
p28
tp29
Rp30
tp31
a(g3
(g7
S'VUUUU\xcf\x83@'
p32
tp33
Rp34
g3
(g7
S'/r\x9d\t\x18%\x80@'
p35
tp36
Rp37
tp38
aa.