(lp0
S'w_1961'
p1
a(lp2
(cnumpy.core.multiarray
scalar
p3
(cnumpy
dtype
p4
(S'f8'
p5
I0
I1
tp6
Rp7
(I3
S'<'
p8
NNNI-1
I-1
I0
tp9
bS'|W\xad\xd8\x8e.\x8f@'
p10
tp11
Rp12
g3
(g7
S'\x91\xb4!\xaa\xd4G\x9c@'
p13
tp14
Rp15
tp16
a(g3
(g7
S'(q\xcd\x00A\x8f\x99@'
p17
tp18
Rp19
g3
(g7
S'\xae\x97\xfd<L\x1b\x8f@'
p20
tp21
Rp22
tp23
aa(lp24
(g3
(g7
S'\xe8\x9eFX\xeeev@'
p25
tp26
Rp27
g3
(g7
S'\xe5\x9eFX\xee\xa3\x80@'
p28
tp29
Rp30
tp31
a(g3
(g7
S'd\xb9\xa7\x11\x96gt@'
p32
tp33
Rp34
g3
(g7
S'$,\xf74\xc2Jj@'
p35
tp36
Rp37
tp38
aa.