(lp0
S'w_1999'
p1
a(lp2
(cnumpy.core.multiarray
scalar
p3
(cnumpy
dtype
p4
(S'f8'
p5
I0
I1
tp6
Rp7
(I3
S'<'
p8
NNNI-1
I-1
I0
tp9
bS'\x87g\xc11\xbe-\x90@'
p10
tp11
Rp12
g3
(g7
S'\xb4!\xaa\xd4I\xf8\x95@'
p13
tp14
Rp15
tp16
a(g3
(g7
S'+\xf3\xef\xeb\xa6\xd4\x99@'
p17
tp18
Rp19
g3
(g7
S'8D\x95:\x89\xa3\x86@'
p20
tp21
Rp22
tp23
aa(lp24
(g3
(g7
S'pO#,\xf7\\g@'
p25
tp26
Rp27
g3
(g7
S'\xf0i\x84\xe5\x9e^n@'
p28
tp29
Rp30
tp31
a(g3
(g7
S'\xf64\xc2rO\xdfv@'
p32
tp33
Rp34
g3
(g7
S'\xefi\x84\xe5\x9e\x9ew@'
p35
tp36
Rp37
tp38
aa.