(lp0
S'w_209'
p1
a(lp2
(cnumpy.core.multiarray
scalar
p3
(cnumpy
dtype
p4
(S'f8'
p5
I0
I1
tp6
Rp7
(I3
S'<'
p8
NNNI-1
I-1
I0
tp9
bS'8\r\xa1\x92n\x10\x83@'
p10
tp11
Rp12
g3
(g7
S'\xe7\xbf_o\x166\x90@'
p13
tp14
Rp15
tp16
a(g3
(g7
S'$\xdb\xa3\x19@\x9e\x98@'
p17
tp18
Rp19
g3
(g7
S'@x,\xef\xd5\x06i@'
p20
tp21
Rp22
tp23
aa(lp24
(g3
(g7
S'2\xf5d\xfcv\xc5{@'
p25
tp26
Rp27
g3
(g7
S"\xca\xf8\xedRO'\x82@"
p28
tp29
Rp30
tp31
a(g3
(g7
S'\xc6o\x97z2:~@'
p32
tp33
Rp34
g3
(g7
S'\x88\xcd\x81D+\x9ew@'
p35
tp36
Rp37
tp38
aa.