(lp0
S'w_2245'
p1
a(lp2
(cnumpy.core.multiarray
scalar
p3
(cnumpy
dtype
p4
(S'f8'
p5
I0
I1
tp6
Rp7
(I3
S'<'
p8
NNNI-1
I-1
I0
tp9
bS'8\x85&0<\t\x92@'
p10
tp11
Rp12
g3
(g7
S'H\x99\x7f_7\x83\x96@'
p13
tp14
Rp15
tp16
a(g3
(g7
S'J\xda\x10U\xea"\x9e@'
p17
tp18
Rp19
g3
(g7
S'\x18]t\xd1E\x13\x85@'
p20
tp21
Rp22
tp23
aa(lp24
(g3
(g7
S'\xe0\x9a\x01\x82"\xafq@'
p25
tp26
Rp27
g3
(g7
S'\x98{\x1aa\xb9\xd7u@'
p28
tp29
Rp30
tp31
a(g3
(g7
S'\xe8$\xae\x19 \x18y@'
p32
tp33
Rp34
g3
(g7
S'd|[\xf2\xae\x10\x81@'
p35
tp36
Rp37
tp38
aa.