(lp0
S'w_2393'
p1
a(lp2
(cnumpy.core.multiarray
scalar
p3
(cnumpy
dtype
p4
(S'f8'
p5
I0
I1
tp6
Rp7
(I3
S'<'
p8
NNNI-1
I-1
I0
tp9
bS'\xaa\xaa\xaa\xaa\xaa\x0f\x93@'
p10
tp11
Rp12
g3
(g7
S'\xac\xaa\xaa\xaa*M\x87@'
p13
tp14
Rp15
tp16
a(g3
(g7
S"\xfe\xff\xff\xff?'\x9e@"
p17
tp18
Rp19
g3
(g7
S'\x00\x00\x00\x00\xc0=\x94@'
p20
tp21
Rp22
tp23
aa(lp24
(g3
(g7
S'r\x1c\xc7q\x9cs~@'
p25
tp26
Rp27
g3
(g7
S'\x1d\xc7q\x1cG$p@'
p28
tp29
Rp30
tp31
a(g3
(g7
S's\x1c\xc7q\x1cJj@'
p32
tp33
Rp34
g3
(g7
S'VUUUUoj@'
p35
tp36
Rp37
tp38
aa.