(lp0
S'w_2300'
p1
a(lp2
(cnumpy.core.multiarray
scalar
p3
(cnumpy
dtype
p4
(S'f8'
p5
I0
I1
tp6
Rp7
(I3
S'<'
p8
NNNI-1
I-1
I0
tp9
bS'Rd\xbd\xec\xe7_\x9a@'
p10
tp11
Rp12
g3
(g7
S'lG\x99\x7f_5\x99@'
p13
tp14
Rp15
tp16
a(g3
(g7
S'/\xba\xe8\xa2\x8b-\xa4@'
p17
tp18
Rp19
g3
(g7
S'\xbc)4\x81\xe1U\x88@'
p20
tp21
Rp22
tp23
aa(lp24
(g3
(g7
S'\x04\x04E\xd6\xcb\xeaq@'
p25
tp26
Rp27
g3
(g7
S'\x98\xf9\xf7uS\x04m@'
p28
tp29
Rp30
tp31
a(g3
(g7
S'M\x1f\xe7 i\x9d\x84@'
p32
tp33
Rp34
g3
(g7
S'\xfc\xba)4\x81Gv@'
p35
tp36
Rp37
tp38
aa.