(lp0
S'w_2436'
p1
a(lp2
(cnumpy.core.multiarray
scalar
p3
(cnumpy
dtype
p4
(S'f8'
p5
I0
I1
tp6
Rp7
(I3
S'<'
p8
NNNI-1
I-1
I0
tp9
bS'\xb2\xdc\xd3\x08\xcb\x9b\x9c@'
p10
tp11
Rp12
g3
(g7
S'tO#,\xf7Y\x9d@'
p13
tp14
Rp15
tp16
a(g3
(g7
S'\x8f\xb0\xdc\xd3H\xf1\xa5@'
p17
tp18
Rp19
g3
(g7
S'tO#,\xf7\xfc\x90@'
p20
tp21
Rp22
tp23
aa(lp24
(g3
(g7
S'}\x9c\x83\xa4\r\x0b\x83@'
p25
tp26
Rp27
g3
(g7
S'm\x88*u\x12\xfb{@'
p28
tp29
Rp30
tp31
a(g3
(g7
S'T\xe6\xdf\xd7M\x8dq@'
p32
tp33
Rp34
g3
(g7
S'jCT\xa9\x93"t@'
p35
tp36
Rp37
tp38
aa.