(lp0
S'w_2604'
p1
a(lp2
(cnumpy.core.multiarray
scalar
p3
(cnumpy
dtype
p4
(S'f8'
p5
I0
I1
tp6
Rp7
(I3
S'<'
p8
NNNI-1
I-1
I0
tp9
bS'\xa4\rQ\xa5N\xab\x8d@'
p10
tp11
Rp12
g3
(g7
S'p\x8coK^@\x99@'
p13
tp14
Rp15
tp16
a(g3
(g7
S'\x06\x08\x8a\xac\x97\xf9\x9a@'
p17
tp18
Rp19
g3
(g7
S'x\x94\xf9\xf7uA\x89@'
p20
tp21
Rp22
tp23
aa(lp24
(g3
(g7
S'\x14Y/\xfby\xa0\x80@'
p25
tp26
Rp27
g3
(g7
S'o\nM`xB\x81@'
p28
tp29
Rp30
tp31
a(g3
(g7
S'\x12\x96{\x1aa)w@'
p32
tp33
Rp34
g3
(g7
S'8\xc6\xb7%\xef\xe2r@'
p35
tp36
Rp37
tp38
aa.