(lp0
S'w_2653'
p1
a(lp2
(cnumpy.core.multiarray
scalar
p3
(cnumpy
dtype
p4
(S'f8'
p5
I0
I1
tp6
Rp7
(I3
S'<'
p8
NNNI-1
I-1
I0
tp9
bS'N\x1f\xe7 i\xbf\x88@'
p10
tp11
Rp12
g3
(g7
S'\x0c\x8e\xf1m\xc9u\x92@'
p13
tp14
Rp15
tp16
a(g3
(g7
S'0\xfby\x98>\xec\x98@'
p17
tp18
Rp19
g3
(g7
S'\xf0(\xf3\xef\xeb>|@'
p20
tp21
Rp22
tp23
aa(lp24
(g3
(g7
S"\xa7R'q\xcd*\x80@"
p25
tp26
Rp27
g3
(g7
S'_\xf6\xf30}\x1c~@'
p28
tp29
Rp30
tp31
a(g3
(g7
S'~\x1e\xa6\x8fs\xe4t@'
p32
tp33
Rp34
g3
(g7
S'H\xda\x10U\xea8r@'
p35
tp36
Rp37
tp38
aa.