(lp0
S'w_2724'
p1
a(lp2
(cnumpy.core.multiarray
scalar
p3
(cnumpy
dtype
p4
(S'f8'
p5
I0
I1
tp6
Rp7
(I3
S'<'
p8
NNNI-1
I-1
I0
tp9
bS'\xaa\xaa\xaa\xaa\xaa\xa6\x8a@'
p10
tp11
Rp12
g3
(g7
S'9\x8e\xe38\x8ea\x95@'
p13
tp14
Rp15
tp16
a(g3
(g7
S'UUUUU\xd3\x9a@'
p17
tp18
Rp19
g3
(g7
S'VUUUUQ\x84@'
p20
tp21
Rp22
tp23
aa(lp24
(g3
(g7
S'v\x1c\xc7q\x1c\xf1m@'
p25
tp26
Rp27
g3
(g7
S'\xab\xaa\xaa\xaa*^s@'
p28
tp29
Rp30
tp31
a(g3
(g7
S'\xad\xaa\xaa\xaa\xaa\xd6|@'
p32
tp33
Rp34
g3
(g7
S'\x1d\xc7q\x1cG\x9dt@'
p35
tp36
Rp37
tp38
aa.