(lp0
S'w_2852'
p1
a(lp2
(cnumpy.core.multiarray
scalar
p3
(cnumpy
dtype
p4
(S'f8'
p5
I0
I1
tp6
Rp7
(I3
S'<'
p8
NNNI-1
I-1
I0
tp9
bS'\xede?\x0fS\xc7\x96@'
p10
tp11
Rp12
g3
(g7
S'{\xd9\xcf\xc3\xf42\x94@'
p13
tp14
Rp15
tp16
a(g3
(g7
S'\x1a (\xb2\x1eU\xa1@'
p17
tp18
Rp19
g3
(g7
S'f\xbd\xec\xe7aZ\x81@'
p20
tp21
Rp22
tp23
aa(lp24
(g3
(g7
S'\xa0FX\xeei\xbaz@'
p25
tp26
Rp27
g3
(g7
S'tO#,\xf7dm@'
p28
tp29
Rp30
tp31
a(g3
(g7
S'R#,\xf74\x14p@'
p32
tp33
Rp34
g3
(g7
S'\x98{\x1aa\xb9{\x7f@'
p35
tp36
Rp37
tp38
aa.