(lp0
S'w_2816'
p1
a(lp2
(cnumpy.core.multiarray
scalar
p3
(cnumpy
dtype
p4
(S'f8'
p5
I0
I1
tp6
Rp7
(I3
S'<'
p8
NNNI-1
I-1
I0
tp9
bS'4\xff\xben\nK\x94@'
p10
tp11
Rp12
g3
(g7
S'\xbb)4\x81\xe1W\x9c@'
p13
tp14
Rp15
tp16
a(g3
(g7
S'^t\xd1E\x17\\\xa2@'
p17
tp18
Rp19
g3
(g7
S'pK\xdeU+\xb2\x83@'
p20
tp21
Rp22
tp23
aa(lp24
(g3
(g7
S'\xff\xff\xff\xff\xffk\x80@'
p25
tp26
Rp27
g3
(g7
S'DT\xa9\x93\xb8zx@'
p28
tp29
Rp30
tp31
a(g3
(g7
S'sO#,\xf77\x81@'
p32
tp33
Rp34
g3
(g7
S'\\\xf2\xaeZ\xb1]\x85@'
p35
tp36
Rp37
tp38
aa.