(lp0
S'w_2827'
p1
a(lp2
(cnumpy.core.multiarray
scalar
p3
(cnumpy
dtype
p4
(S'f8'
p5
I0
I1
tp6
Rp7
(I3
S'<'
p8
NNNI-1
I-1
I0
tp9
bS'\xa0B\x13\x18\x9e\xd5\x8e@'
p10
tp11
Rp12
g3
(g7
S'\xd6\xcb~\x1e\xa6\xa3\x91@'
p13
tp14
Rp15
tp16
a(g3
(g7
S'*0<\x0b\x8ef\x9c@'
p17
tp18
Rp19
g3
(g7
S'\x10\x10\x14Y/\x03n@'
p20
tp21
Rp22
tp23
aa(lp24
(g3
(g7
S'\x12\xd3\xc79Hjx@'
p25
tp26
Rp27
g3
(g7
S'\xdc\x10U\xea$\xfem@'
p28
tp29
Rp30
tp31
a(g3
(g7
S'\x96\xf9\xf7uS\xb8y@'
p32
tp33
Rp34
g3
(g7
S'\xd5I\\3@\\\x80@'
p35
tp36
Rp37
tp38
aa.