(lp0
S'w_2819'
p1
a(lp2
(cnumpy.core.multiarray
scalar
p3
(cnumpy
dtype
p4
(S'f8'
p5
I0
I1
tp6
Rp7
(I3
S'<'
p8
NNNI-1
I-1
I0
tp9
bS'\x8c\xe38\x8e\xe3Y\x94@'
p10
tp11
Rp12
g3
(g7
S'\xab\xaa\xaa\xaaz:\xa5@'
p13
tp14
Rp15
tp16
a(g3
(g7
S'TUUUu \xa8@'
p17
tp18
Rp19
g3
(g7
S'\x00\x00\x00\x00 =\x93@'
p20
tp21
Rp22
tp23
aa(lp24
(g3
(g7
S'TUUUU7\x82@'
p25
tp26
Rp27
g3
(g7
S'\xe48\x8e\xe3\xb8<\x81@'
p28
tp29
Rp30
tp31
a(g3
(g7
S"\x1b\xc7q\x1c'F\x94@"
p32
tp33
Rp34
g3
(g7
S'\xe48\x8e\xe3\xf8\x82\x80@'
p35
tp36
Rp37
tp38
aa.