(lp0
S'w_2946'
p1
a(lp2
(cnumpy.core.multiarray
scalar
p3
(cnumpy
dtype
p4
(S'f8'
p5
I0
I1
tp6
Rp7
(I3
S'<'
p8
NNNI-1
I-1
I0
tp9
bS'\x8eV\xd8\x1cH\xd0v@'
p10
tp11
Rp12
g3
(g7
S'}2~\xbb\xd42\x8f@'
p13
tp14
Rp15
tp16
a(g3
(g7
S'n\x0e$Zat\x96@'
p17
tp18
Rp19
g3
(g7
S'\xe0\x8c\xdf.\xf5tO@'
p20
tp21
Rp22
tp23
aa(lp24
(g3
(g7
S's \xd1\n\x9b\xef\x81@'
p25
tp26
Rp27
g3
(g7
S'\x1e\xbf]\xea\xc9\xc0v@'
p28
tp29
Rp30
tp31
a(g3
(g7
S'=\x19\xbf]\xea\x05\x83@'
p32
tp33
Rp34
g3
(g7
S'\x9c\x03\x89V\xd8 \x82@'
p35
tp36
Rp37
tp38
aa.