(lp0
S'w_3050'
p1
a(lp2
(cnumpy.core.multiarray
scalar
p3
(cnumpy
dtype
p4
(S'f8'
p5
I0
I1
tp6
Rp7
(I3
S'<'
p8
NNNI-1
I-1
I0
tp9
bS'\xe6\x9eFX\xeeg\x90@'
p10
tp11
Rp12
g3
(g7
S'{\xd9\xcf\xc3\xf4o\x92@'
p13
tp14
Rp15
tp16
a(g3
(g7
S'\xd0A\xd2\x86\xa8P\x9b@'
p17
tp18
Rp19
g3
(g7
S'P`x\x16\x1c\xdb{@'
p20
tp21
Rp22
tp23
aa(lp24
(g3
(g7
S'\x1eiCT\xa9\x93r@'
p25
tp26
Rp27
g3
(g7
S'b\xfa8\x07I\x13p@'
p28
tp29
Rp30
tp31
a(g3
(g7
S'\xf44\xc2rO\xc7x@'
p32
tp33
Rp34
g3
(g7
S'\xb8\xe4]\xb5b\x97z@'
p35
tp36
Rp37
tp38
aa.