(lp0
S'w_3097'
p1
a(lp2
(cnumpy.core.multiarray
scalar
p3
(cnumpy
dtype
p4
(S'f8'
p5
I0
I1
tp6
Rp7
(I3
S'<'
p8
NNNI-1
I-1
I0
tp9
bS'(\xae\x19 (\xae\x8e@'
p10
tp11
Rp12
g3
(g7
S'u\xd1E\x17]r\x95@'
p13
tp14
Rp15
tp16
a(g3
(g7
S'$\xebe?\x0f\xd1\x9b@'
p17
tp18
Rp19
g3
(g7
S'nG\x99\x7f_3\x85@'
p20
tp21
Rp22
tp23
aa(lp24
(g3
(g7
S'\x906D\x95:\xf3\x81@'
p25
tp26
Rp27
g3
(g7
S'`3@Pd%j@'
p28
tp29
Rp30
tp31
a(g3
(g7
S'!\xaa\xd4I\\\xe7r@'
p32
tp33
Rp34
g3
(g7
S'\xccz\xd9\xcf\xc3\xeco@'
p35
tp36
Rp37
tp38
aa.