(lp0
S'w_3011'
p1
a(lp2
(cnumpy.core.multiarray
scalar
p3
(cnumpy
dtype
p4
(S'f8'
p5
I0
I1
tp6
Rp7
(I3
S'<'
p8
NNNI-1
I-1
I0
tp9
bS"'q\xcd\x00A\xc7\x96@"
p10
tp11
Rp12
g3
(g7
S"\xd3\x86\xa8R'!\x92@"
p13
tp14
Rp15
tp16
a(g3
(g7
S'\t\xcb=\x8d0\xf3\x9e@'
p17
tp18
Rp19
g3
(g7
S'\xb8\xe4]\xb5b\x83\x85@'
p20
tp21
Rp22
tp23
aa(lp24
(g3
(g7
S'4\x81\xe1Yp\xdcu@'
p25
tp26
Rp27
g3
(g7
S'\xc0n\nM`\xa8g@'
p28
tp29
Rp30
tp31
a(g3
(g7
S'^\xb5b;\xca|d@'
p32
tp33
Rp34
g3
(g7
S'\xda\xcf\xc3\xf4q\xbel@'
p35
tp36
Rp37
tp38
aa.