(lp0
S'w_3180'
p1
a(lp2
(cnumpy.core.multiarray
scalar
p3
(cnumpy
dtype
p4
(S'f8'
p5
I0
I1
tp6
Rp7
(I3
S'<'
p8
NNNI-1
I-1
I0
tp9
bS'\x11\xa9\xa6\xa0\x11$\x86@'
p10
tp11
Rp12
g3
(g7
S'\xcau&`\xf0\xd6\x92@'
p13
tp14
Rp15
tp16
a(g3
(g7
S'\x8e\xdf.\xf5d\xf8\x95@'
p17
tp18
Rp19
g3
(g7
S'4l\x0e$ZY}@'
p20
tp21
Rp22
tp23
aa(lp24
(g3
(g7
S'\x14\xb7I\xb8\xccGz@'
p25
tp26
Rp27
g3
(g7
S'\xb2\xb8M\xc2e6~@'
p28
tp29
Rp30
tp31
a(g3
(g7
S'PMA#X\xa4q@'
p32
tp33
Rp34
g3
(g7
S'\x94j\n\x1a\xc1\x9ar@'
p35
tp36
Rp37
tp38
aa.