(lp0
S'w_3101'
p1
a(lp2
(cnumpy.core.multiarray
scalar
p3
(cnumpy
dtype
p4
(S'f8'
p5
I0
I1
tp6
Rp7
(I3
S'<'
p8
NNNI-1
I-1
I0
tp9
bS'\xe2Yp\x8coI\x92@'
p10
tp11
Rp12
g3
(g7
S'\xca\xbbj\xc5v\x92\x95@'
p13
tp14
Rp15
tp16
a(g3
(g7
S'\xc6v\x94\xf9\xf7s\x9f@'
p17
tp18
Rp19
g3
(g7
S'\xca\xbbj\xc5v\x90\x81@'
p20
tp21
Rp22
tp23
aa(lp24
(g3
(g7
S'&\xebe?\x0f\x97\x7f@'
p25
tp26
Rp27
g3
(g7
S'.8\xc6\xb7%\x87w@'
p28
tp29
Rp30
tp31
a(g3
(g7
S'\x02\xbfn\nMxs@'
p32
tp33
Rp34
g3
(g7
S'$\xebe?\x0f\xd7~@'
p35
tp36
Rp37
tp38
aa.