(lp0
S'w_3258'
p1
a(lp2
(cnumpy.core.multiarray
scalar
p3
(cnumpy
dtype
p4
(S'f8'
p5
I0
I1
tp6
Rp7
(I3
S'<'
p8
NNNI-1
I-1
I0
tp9
bS'TUUUUQ\x8e@'
p10
tp11
Rp12
g3
(g7
S'\xe48\x8e\xe38\x0c\x99@'
p13
tp14
Rp15
tp16
a(g3
(g7
S'\x8d\xe38\x8e\xe36\x98@'
p17
tp18
Rp19
g3
(g7
S'\x00\x00\x00\x00\x00\xfc\x8f@'
p20
tp21
Rp22
tp23
aa(lp24
(g3
(g7
S'TUUUU\x0cy@'
p25
tp26
Rp27
g3
(g7
S'r\x1c\xc7q\x1c\x8eu@'
p28
tp29
Rp30
tp31
a(g3
(g7
S'TUUUU\x05e@'
p32
tp33
Rp34
g3
(g7
S'\xe48\x8e\xe38\xfch@'
p35
tp36
Rp37
tp38
aa.