(lp0
S'w_3322'
p1
a(lp2
(cnumpy.core.multiarray
scalar
p3
(cnumpy
dtype
p4
(S'f8'
p5
I0
I1
tp6
Rp7
(I3
S'<'
p8
NNNI-1
I-1
I0
tp9
bS"\x88\xa8R'q\xcb\x94@"
p10
tp11
Rp12
g3
(g7
S'H\x99\x7f_7\x83\x96@'
p13
tp14
Rp15
tp16
a(g3
(g7
S'pK\xdeU+\xb4\x9f@'
p17
tp18
Rp19
g3
(g7
S'\x18\xdbQ\xe6\xdf\xd3\x85@'
p20
tp21
Rp22
tp23
aa(lp24
(g3
(g7
S'\xc21\xbe-y[\x81@'
p25
tp26
Rp27
g3
(g7
S'\x96:\x89k\x06\x9cy@'
p28
tp29
Rp30
tp31
a(g3
(g7
S'\xa2\t\x0c\xcf\x82sq@'
p32
tp33
Rp34
g3
(g7
S'\x0cM`x\x16@q@'
p35
tp36
Rp37
tp38
aa.