(lp0
S'w_3380'
p1
a(lp2
(cnumpy.core.multiarray
scalar
p3
(cnumpy
dtype
p4
(S'f8'
p5
I0
I1
tp6
Rp7
(I3
S'<'
p8
NNNI-1
I-1
I0
tp9
bS'\x84"\xebe?E\x8e@'
p10
tp11
Rp12
g3
(g7
S'\xea\xa2\x8b.:$\x93@'
p13
tp14
Rp15
tp16
a(g3
(g7
S'\x9a\xc0\xf0,\xb8h\x9c@'
p17
tp18
Rp19
g3
(g7
S'\xe8\x1c$m\x88\xeev@'
p20
tp21
Rp22
tp23
aa(lp24
(g3
(g7
S'\xcc~\x1e\xa6\x8f\xf5p@'
p25
tp26
Rp27
g3
(g7
S',\xb6\xa3\xcc\xbfWu@'
p28
tp29
Rp30
tp31
a(g3
(g7
S'\x1c\xe3\xdb\x92wk\x82@'
p32
tp33
Rp34
g3
(g7
S'"\xaa\xd4I\\Iz@'
p35
tp36
Rp37
tp38
aa.