(lp0
S'w_3482'
p1
a(lp2
(cnumpy.core.multiarray
scalar
p3
(cnumpy
dtype
p4
(S'f8'
p5
I0
I1
tp6
Rp7
(I3
S'<'
p8
NNNI-1
I-1
I0
tp9
bS'\xaa\xaa\xaa\xaa\xaa\xa6\x8d@'
p10
tp11
Rp12
g3
(g7
S'\x8e\xe38\x8e\xe3\xb6\x92@'
p13
tp14
Rp15
tp16
a(g3
(g7
S'\xa9\xaa\xaa\xaa\xaa(\x9c@'
p17
tp18
Rp19
g3
(g7
S'XUUUUMy@'
p20
tp21
Rp22
tp23
aa(lp24
(g3
(g7
S'SUUU\x95v|@'
p25
tp26
Rp27
g3
(g7
S'VUUUU\xfa\x7f@'
p28
tp29
Rp30
tp31
a(g3
(g7
S'q\x1c\xc7q\x9cZv@'
p32
tp33
Rp34
g3
(g7
S'XUUU\xd5Lk@'
p35
tp36
Rp37
tp38
aa.