(lp0
S'w_345'
p1
a(lp2
(cnumpy.core.multiarray
scalar
p3
(cnumpy
dtype
p4
(S'f8'
p5
I0
I1
tp6
Rp7
(I3
S'<'
p8
NNNI-1
I-1
I0
tp9
bS':\x8e\xe38N\xdb\x9c@'
p10
tp11
Rp12
g3
(g7
S'\x90\xe38\x8e\xe3\xfa{@'
p13
tp14
Rp15
tp16
a(g3
(g7
S'r\x1c\xc7q\xdc\xea\x90@'
p17
tp18
Rp19
g3
(g7
S't\x1c\xc7q\x1c\xd5\x8d@'
p20
tp21
Rp22
tp23
aa(lp24
(g3
(g7
S'\xaa\xaa\xaa\xaa\xea\xbf{@'
p25
tp26
Rp27
g3
(g7
S'VUUU\xd5\xeef@'
p28
tp29
Rp30
tp31
a(g3
(g7
S'TUUU\x15\x99t@'
p32
tp33
Rp34
g3
(g7
S'VUUU\xd5\x00s@'
p35
tp36
Rp37
tp38
aa.