(lp0
S'w_3512'
p1
a(lp2
(cnumpy.core.multiarray
scalar
p3
(cnumpy
dtype
p4
(S'f8'
p5
I0
I1
tp6
Rp7
(I3
S'<'
p8
NNNI-1
I-1
I0
tp9
bS'8\x8e\xe38\x8e\xdf\x8d@'
p10
tp11
Rp12
g3
(g7
S'\x8e\xe38\x8e\xe36\x94@'
p13
tp14
Rp15
tp16
a(g3
(g7
S'UUUUU\xd3\x9a@'
p17
tp18
Rp19
g3
(g7
S'\x00\x00\x00\x00\x00\xf8}@'
p20
tp21
Rp22
tp23
aa(lp24
(g3
(g7
S'\xaa\xaa\xaa\xaa\xaau{@'
p25
tp26
Rp27
g3
(g7
S'\xe48\x8e\xe38\x0f\x80@'
p28
tp29
Rp30
tp31
a(g3
(g7
S'r\x1c\xc7q\x9c\x04{@'
p32
tp33
Rp34
g3
(g7
S'TUUUUAg@'
p35
tp36
Rp37
tp38
aa.