(lp0
S'w_3520'
p1
a(lp2
(cnumpy.core.multiarray
scalar
p3
(cnumpy
dtype
p4
(S'f8'
p5
I0
I1
tp6
Rp7
(I3
S'<'
p8
NNNI-1
I-1
I0
tp9
bS'e\x00\x81B\xa6B\x93@'
p10
tp11
Rp12
g3
(g7
S'e\xfa\xf1\\h\x93\x97@'
p13
tp14
Rp15
tp16
a(g3
(g7
S'\x89\xd7\x1a\xc3g\xf4\x9e@'
p17
tp18
Rp19
g3
(g7
S'\x92d{4\x03A\x86@'
p20
tp21
Rp22
tp23
aa(lp24
(g3
(g7
S'#Zas \x11\x80@'
p25
tp26
Rp27
g3
(g7
S'\xe2.\xf5d\xfc\xe6t@'
p28
tp29
Rp30
tp31
a(g3
(g7
S'\xd6\x9f\x0f\xa7!\xb4r@'
p32
tp33
Rp34
g3
(g7
S'\xbbM\xc2e\xfe\x8bz@'
p35
tp36
Rp37
tp38
aa.