(lp0
S'w_3613'
p1
a(lp2
(cnumpy.core.multiarray
scalar
p3
(cnumpy
dtype
p4
(S'f8'
p5
I0
I1
tp6
Rp7
(I3
S'<'
p8
NNNI-1
I-1
I0
tp9
bS'e\xbd\xec\xe7a\x01\x94@'
p10
tp11
Rp12
g3
(g7
S'\xc9z\xd9\xcfC\x90\x9a@'
p13
tp14
Rp15
tp16
a(g3
(g7
S'\xaf\x19 (2\xe5\x9e@'
p17
tp18
Rp19
g3
(g7
S'\x04\x04E\xd6Kr\x90@'
p20
tp21
Rp22
tp23
aa(lp24
(g3
(g7
S'\xa7\xd0\x04\x86g!x@'
p25
tp26
Rp27
g3
(g7
S'\xfa\xf7uSh\xea{@'
p28
tp29
Rp30
tp31
a(g3
(g7
S'Uh\x02\xc3\xb3\xf0v@'
p32
tp33
Rp34
g3
(g7
S"T'q\xcd\x00qd@"
p35
tp36
Rp37
tp38
aa.