(lp0
S'w_3688'
p1
a(lp2
(cnumpy.core.multiarray
scalar
p3
(cnumpy
dtype
p4
(S'f8'
p5
I0
I1
tp6
Rp7
(I3
S'<'
p8
NNNI-1
I-1
I0
tp9
bS'TUUUUQ\x8c@'
p10
tp11
Rp12
g3
(g7
S'\xc8q\x1c\xc7q\x18\x8c@'
p13
tp14
Rp15
tp16
a(g3
(g7
S'\x1c\xc7q\x1c\xc7o\x95@'
p17
tp18
Rp19
g3
(g7
S't\x1c\xc7q\x1c\xbfy@'
p20
tp21
Rp22
tp23
aa(lp24
(g3
(g7
S"UUUUU'r@"
p25
tp26
Rp27
g3
(g7
S'\xe48\x8e\xe38\xcak@'
p28
tp29
Rp30
tp31
a(g3
(g7
S'6\x8e\xe38\x8e\xf3d@'
p32
tp33
Rp34
g3
(g7
S'VUUUU\xdfr@'
p35
tp36
Rp37
tp38
aa.