(lp0
S'w_3702'
p1
a(lp2
(cnumpy.core.multiarray
scalar
p3
(cnumpy
dtype
p4
(S'f8'
p5
I0
I1
tp6
Rp7
(I3
S'<'
p8
NNNI-1
I-1
I0
tp9
bS'\xe0\xd7M\xa1\tt\x8d@'
p10
tp11
Rp12
g3
(g7
S'\xf7\xf30}\x1c6\x96@'
p13
tp14
Rp15
tp16
a(g3
(g7
S'\xa7\x8fs\x904\x07\x99@'
p17
tp18
Rp19
g3
(g7
S'6\x81\xe1Yp\xfb\x84@'
p20
tp21
Rp22
tp23
aa(lp24
(g3
(g7
S'\xb2^\xf6\xf30Yz@'
p25
tp26
Rp27
g3
(g7
S'\\3@Pd\x13\x81@'
p28
tp29
Rp30
tp31
a(g3
(g7
S'X/\xfby\x98^m@'
p32
tp33
Rp34
g3
(g7
S',\xf3\xef\xeb\xa6(k@'
p35
tp36
Rp37
tp38
aa.