(lp0
S'w_373'
p1
a(lp2
(cnumpy.core.multiarray
scalar
p3
(cnumpy
dtype
p4
(S'f8'
p5
I0
I1
tp6
Rp7
(I3
S'<'
p8
NNNI-1
I-1
I0
tp9
bS'\xd4\x93\xf1\xdb\xa5&\x91@'
p10
tp11
Rp12
g3
(g7
S'\xf6d\xfcv)w\x95@'
p13
tp14
Rp15
tp16
a(g3
(g7
S'\x84\xcd\x81D+u\x9b@'
p17
tp18
Rp19
g3
(g7
S'\x84D+l\x0e\xe3\x86@'
p20
tp21
Rp22
tp23
aa(lp24
(g3
(g7
S'\x02\x8d`q\x9b\xecj@'
p25
tp26
Rp27
g3
(g7
S'w&`\xf0X\xf0v@'
p28
tp29
Rp30
tp31
a(g3
(g7
S'\xeb\xcf\x87\xd3\x10.w@'
p32
tp33
Rp34
g3
(g7
S'\xc1\xde,p\x18_u@'
p35
tp36
Rp37
tp38
aa.