(lp0
S'w_3817'
p1
a(lp2
(cnumpy.core.multiarray
scalar
p3
(cnumpy
dtype
p4
(S'f8'
p5
I0
I1
tp6
Rp7
(I3
S'<'
p8
NNNI-1
I-1
I0
tp9
bS'\x8f\xe38\x8eK\xe7\xa4@'
p10
tp11
Rp12
g3
(g7
S'\xc8q\x1c\xc7\xa9\x1f\xa0@'
p13
tp14
Rp15
tp16
a(g3
(g7
S'\x01\x00\x00\x00\xa8\t\xb0@'
p17
tp18
Rp19
g3
(g7
S'UUUUu\x83\xa8@'
p20
tp21
Rp22
tp23
aa(lp24
(g3
(g7
S'XUUUU\xe2\x8f@'
p25
tp26
Rp27
g3
(g7
S'\x00\x00\x00\x00\x00\xf0{@'
p28
tp29
Rp30
tp31
a(g3
(g7
S'\xad\xaa\xaa\xaa*\xc2{@'
p32
tp33
Rp34
g3
(g7
S'VUUUUNz@'
p35
tp36
Rp37
tp38
aa.