(lp0
S'w_3843'
p1
a(lp2
(cnumpy.core.multiarray
scalar
p3
(cnumpy
dtype
p4
(S'f8'
p5
I0
I1
tp6
Rp7
(I3
S'<'
p8
NNNI-1
I-1
I0
tp9
bS'b\xfa8\x07I\x19\x92@'
p10
tp11
Rp12
g3
(g7
S'\xa6N\xe2\x9a\x01\x80\x92@'
p13
tp14
Rp15
tp16
a(g3
(g7
S'"iCT\xa9\x92\xa0@'
p17
tp18
Rp19
g3
(g7
S'\x08E\xd6\xcb~\x16v@'
p20
tp21
Rp22
tp23
aa(lp24
(g3
(g7
S'8\x07I\x1b\xa2_\x84@'
p25
tp26
Rp27
g3
(g7
S'\x86&0<\x0b\xf8u@'
p28
tp29
Rp30
tp31
a(g3
(g7
S'6D\x95:\x89\x01u@'
p32
tp33
Rp34
g3
(g7
S'\\\xf2\xaeZ\xb1Au@'
p35
tp36
Rp37
tp38
aa.