(lp0
S'w_3954'
p1
a(lp2
(cnumpy.core.multiarray
scalar
p3
(cnumpy
dtype
p4
(S'f8'
p5
I0
I1
tp6
Rp7
(I3
S'<'
p8
NNNI-1
I-1
I0
tp9
bS'\xbd\xabVlGi\x95@'
p10
tp11
Rp12
g3
(g7
S'\x94\xf9\xf7uS`\x99@'
p13
tp14
Rp15
tp16
a(g3
(g7
S'$,\xf74\xc2[\xa1@'
p17
tp18
Rp19
g3
(g7
S'\n\x0c\xcf\x82cP\x87@'
p20
tp21
Rp22
tp23
aa(lp24
(g3
(g7
S'#m\x88*u\xf2\x83@'
p25
tp26
Rp27
g3
(g7
S'",\xf74\xc2\x96|@'
p28
tp29
Rp30
tp31
a(g3
(g7
S'\x9e\x87\xe9\xe3\x1c8t@'
p32
tp33
Rp34
g3
(g7
S'|[\xf2\xaeZ\xe1s@'
p35
tp36
Rp37
tp38
aa.