(lp0
S'w_3922'
p1
a(lp2
(cnumpy.core.multiarray
scalar
p3
(cnumpy
dtype
p4
(S'f8'
p5
I0
I1
tp6
Rp7
(I3
S'<'
p8
NNNI-1
I-1
I0
tp9
bS'\xff\xff\xff\xff\x9f\x13\x9d@'
p10
tp11
Rp12
g3
(g7
S'9\x8e\xe38.C\x9b@'
p13
tp14
Rp15
tp16
a(g3
(g7
S'\xe28\x8e\xe3\x98\xcc\x94@'
p17
tp18
Rp19
g3
(g7
S'9\x8e\xe38n\x1e\x94@'
p20
tp21
Rp22
tp23
aa(lp24
(g3
(g7
S'TUUUU\xe1r@'
p25
tp26
Rp27
g3
(g7
S':\x8e\xe38\x8e\xf8c@'
p28
tp29
Rp30
tp31
a(g3
(g7
S'\x1d\xc7q\x1cG\xbcl@'
p32
tp33
Rp34
g3
(g7
S'r\x1c\xc7q\\Fq@'
p35
tp36
Rp37
tp38
aa.