(lp0
S'w_3979'
p1
a(lp2
(cnumpy.core.multiarray
scalar
p3
(cnumpy
dtype
p4
(S'f8'
p5
I0
I1
tp6
Rp7
(I3
S'<'
p8
NNNI-1
I-1
I0
tp9
bS'\xbc)4\x81\xe1W\x90@'
p10
tp11
Rp12
g3
(g7
S'n\x88*u\x12\xd5\x98@'
p13
tp14
Rp15
tp16
a(g3
(g7
S'\xa2\xc8z\xd9\xcf\xc1\x9c@'
p17
tp18
Rp19
g3
(g7
S'\x16\x9a\xc0\xf0,4\x86@'
p20
tp21
Rp22
tp23
aa(lp24
(g3
(g7
S'd|[\xf2\xae:v@'
p25
tp26
Rp27
g3
(g7
S'8\xc6\xb7%\xefpt@'
p28
tp29
Rp30
tp31
a(g3
(g7
S',\xb6\xa3\xcc\xbf9}@'
p32
tp33
Rp34
g3
(g7
S'\x9eFX\xeeit\x82@'
p35
tp36
Rp37
tp38
aa.