(lp0
S'w_3956'
p1
a(lp2
(cnumpy.core.multiarray
scalar
p3
(cnumpy
dtype
p4
(S'f8'
p5
I0
I1
tp6
Rp7
(I3
S'<'
p8
NNNI-1
I-1
I0
tp9
bS'\xecP\xcay0\xf5\x8e@'
p10
tp11
Rp12
g3
(g7
S'\xc2a\xf4bw(\x96@'
p13
tp14
Rp15
tp16
a(g3
(g7
S'\xf6j\x8b\\g\x00\x9e@'
p17
tp18
Rp19
g3
(g7
S'^as \xd1\x06\x83@'
p20
tp21
Rp22
tp23
aa(lp24
(g3
(g7
S'&Zas \xf1{@'
p25
tp26
Rp27
g3
(g7
S'"\xd1\n\x9b\x03\x15t@'
p28
tp29
Rp30
tp31
a(g3
(g7
S'\xb0\xb09\x90hm}@'
p32
tp33
Rp34
g3
(g7
S'\xca\xf8\xedRO\x08\x80@'
p35
tp36
Rp37
tp38
aa.