(lp0
S'w_3999'
p1
a(lp2
(cnumpy.core.multiarray
scalar
p3
(cnumpy
dtype
p4
(S'f8'
p5
I0
I1
tp6
Rp7
(I3
S'<'
p8
NNNI-1
I-1
I0
tp9
bS'\xff\xff\xff\xff\xff}\x91@'
p10
tp11
Rp12
g3
(g7
S'VUUUUQ\x82@'
p13
tp14
Rp15
tp16
a(g3
(g7
S'UUUUUS\x9e@'
p17
tp18
Rp19
g3
(g7
S'VUUUU\xd3\x90@'
p20
tp21
Rp22
tp23
aa(lp24
(g3
(g7
S'z\xe4\x91G\x1e\x01{@'
p25
tp26
Rp27
g3
(g7
S'\xf6qa\x1f\x17fv@'
p28
tp29
Rp30
tp31
a(g3
(g7
S'\xf8@j\x0f\xa4^v@'
p32
tp33
Rp34
g3
(g7
S'\xac\xaa\xaa\xaa\xaa\xeaZ@'
p35
tp36
Rp37
tp38
aa.