(lp0
S'w_3986'
p1
a(lp2
(cnumpy.core.multiarray
scalar
p3
(cnumpy
dtype
p4
(S'f8'
p5
I0
I1
tp6
Rp7
(I3
S'<'
p8
NNNI-1
I-1
I0
tp9
bS'DT\xa9\x93\xb8\x12\x96@'
p10
tp11
Rp12
g3
(g7
S'_\xf6\xf30}H\x94@'
p13
tp14
Rp15
tp16
a(g3
(g7
S'ax\x16\x1c\xe3>\xa0@'
p17
tp18
Rp19
g3
(g7
S'\xd2E\x17]t\x81\x87@'
p20
tp21
Rp22
tp23
aa(lp24
(g3
(g7
S'~\xdd\x14\x9a\xc0\xf0r@'
p25
tp26
Rp27
g3
(g7
S'\x10\xd3\xc79H\xb2f@'
p28
tp29
Rp30
tp31
a(g3
(g7
S'\\3@Pd\x9du@'
p32
tp33
Rp34
g3
(g7
S'\xb0Z\xb1\x1derv@'
p35
tp36
Rp37
tp38
aa.