(lp0
S'w_4021'
p1
a(lp2
(cnumpy.core.multiarray
scalar
p3
(cnumpy
dtype
p4
(S'f8'
p5
I0
I1
tp6
Rp7
(I3
S'<'
p8
NNNI-1
I-1
I0
tp9
bS'8\x8e\xe38n\x92\x90@'
p10
tp11
Rp12
g3
(g7
S'\xc7q\x1c\xc7q\xa0\x96@'
p13
tp14
Rp15
tp16
a(g3
(g7
S'\x00\x00\x00\x00\xa0\x00\x9c@'
p17
tp18
Rp19
g3
(g7
S'\xac\xaa\xaa\xaaj\xce\x8a@'
p20
tp21
Rp22
tp23
aa(lp24
(g3
(g7
S'RUUUU\x94o@'
p25
tp26
Rp27
g3
(g7
S'\xac\xaa\xaa\xaa*\x00p@'
p28
tp29
Rp30
tp31
a(g3
(g7
S'TUUU5\x12\x80@'
p32
tp33
Rp34
g3
(g7
S'XUUUU;o@'
p35
tp36
Rp37
tp38
aa.