(lp0
S'w_4170'
p1
a(lp2
(cnumpy.core.multiarray
scalar
p3
(cnumpy
dtype
p4
(S'f8'
p5
I0
I1
tp6
Rp7
(I3
S'<'
p8
NNNI-1
I-1
I0
tp9
bS'>\x8d\xb0\xdcSJ\x91@'
p10
tp11
Rp12
g3
(g7
S'7\x03\x04E\xd6\xb0\x8b@'
p13
tp14
Rp15
tp16
a(g3
(g7
S'\xe2Yp\x8co\r\x99@'
p17
tp18
Rp19
g3
(g7
S'@\x0f\xd3\xc79\xc0v@'
p20
tp21
Rp22
tp23
aa(lp24
(g3
(g7
S'_t\xd1E\x17\x9dt@'
p25
tp26
Rp27
g3
(g7
S'\xba\xe8\xa2\x8b."n@'
p28
tp29
Rp30
tp31
a(g3
(g7
S'2\xba\xe8\xa2\x8b\x16b@'
p32
tp33
Rp34
g3
(g7
S'F\x17]t\xd1\x01r@'
p35
tp36
Rp37
tp38
aa.