(lp0
S'w_4227'
p1
a(lp2
(cnumpy.core.multiarray
scalar
p3
(cnumpy
dtype
p4
(S'f8'
p5
I0
I1
tp6
Rp7
(I3
S'<'
p8
NNNI-1
I-1
I0
tp9
bS'`s \xd1\n\x97\x89@'
p10
tp11
Rp12
g3
(g7
S'3~\xbb\xd4\x93r\x98@'
p13
tp14
Rp15
tp16
a(g3
(g7
S'\r$ZasZ\x99@'
p17
tp18
Rp19
g3
(g7
S'n\x0e$ZaU\x85@'
p20
tp21
Rp22
tp23
aa(lp24
(g3
(g7
S'\x06\x12\xad\xb09h}@'
p25
tp26
Rp27
g3
(g7
S'[as \xd1\x00\x80@'
p28
tp29
Rp30
tp31
a(g3
(g7
S'\x0c\x9b\x03\x89V@p@'
p32
tp33
Rp34
g3
(g7
S"f\xfcv\xa9'\xd7v@"
p35
tp36
Rp37
tp38
aa.