(lp0
S'w_4555'
p1
a(lp2
(cnumpy.core.multiarray
scalar
p3
(cnumpy
dtype
p4
(S'f8'
p5
I0
I1
tp6
Rp7
(I3
S'<'
p8
NNNI-1
I-1
I0
tp9
bS'z\x98>\xceA\xe4\x91@'
p10
tp11
Rp12
g3
(g7
S'1}\x9c\x83\xa4\xa7\x95@'
p13
tp14
Rp15
tp16
a(g3
(g7
S'\x82\xe1Yp\x8c\xf6\x9b@'
p17
tp18
Rp19
g3
(g7
S'B\x91\xf5\xb2\x9f7\x89@'
p20
tp21
Rp22
tp23
aa(lp24
(g3
(g7
S'\x96:\x89k\x06Vp@'
p25
tp26
Rp27
g3
(g7
S'n\xc9\xbbj\xc5@u@'
p28
tp29
Rp30
tp31
a(g3
(g7
S'zW\xad\xd8\x8eLu@'
p32
tp33
Rp34
g3
(g7
S',\xb6\xa3\xcc\xbfwl@'
p35
tp36
Rp37
tp38
aa.