(lp0
S'w_476'
p1
a(lp2
(cnumpy.core.multiarray
scalar
p3
(cnumpy
dtype
p4
(S'f8'
p5
I0
I1
tp6
Rp7
(I3
S'<'
p8
NNNI-1
I-1
I0
tp9
bS'\xa3\t\x0c\xcf\x82!\x95@'
p10
tp11
Rp12
g3
(g7
S'\x81\xe1Yp\x8c.\xa8@'
p13
tp14
Rp15
tp16
a(g3
(g7
S'vO#,\xf7\xd3\xa4@'
p17
tp18
Rp19
g3
(g7
S'|[\xf2\xaeZ\xaf\x9c@'
p20
tp21
Rp22
tp23
aa(lp24
(g3
(g7
S'\xf8\xb6\xe4]\xb5zt@'
p25
tp26
Rp27
g3
(g7
S'\x96:\x89k\x064\x81@'
p28
tp29
Rp30
tp31
a(g3
(g7
S'\xb4^\xf6\xf30I\x8a@'
p32
tp33
Rp34
g3
(g7
S'\xaa\x11\x96{\x1a)}@'
p35
tp36
Rp37
tp38
aa.