(lp0
S'w_4749'
p1
a(lp2
(cnumpy.core.multiarray
scalar
p3
(cnumpy
dtype
p4
(S'f8'
p5
I0
I1
tp6
Rp7
(I3
S'<'
p8
NNNI-1
I-1
I0
tp9
bS'\xdcQ\xe6\xdf\xd7\x1e\x95@'
p10
tp11
Rp12
g3
(g7
S'\xbe-yW-\xdf\x9a@'
p13
tp14
Rp15
tp16
a(g3
(g7
S'\x05\x86g\xc1q>\xa1@'
p17
tp18
Rp19
g3
(g7
S'\xece?\x0f\xd3\xfa\x87@'
p20
tp21
Rp22
tp23
aa(lp24
(g3
(g7
S'\xa8\x11\x96{\x1a}\x82@'
p25
tp26
Rp27
g3
(g7
S'\xd0\x82c|[\x0e\x83@'
p28
tp29
Rp30
tp31
a(g3
(g7
S'L\\3@P|z@'
p32
tp33
Rp34
g3
(g7
S'"\xaa\xd4I\\Kr@'
p35
tp36
Rp37
tp38
aa.