(lp0
S'w_4753'
p1
a(lp2
(cnumpy.core.multiarray
scalar
p3
(cnumpy
dtype
p4
(S'f8'
p5
I0
I1
tp6
Rp7
(I3
S'<'
p8
NNNI-1
I-1
I0
tp9
bS'.\xbe-yW\xfd\x89@'
p10
tp11
Rp12
g3
(g7
S'\x98\xfd<L\x1f~\x9a@'
p13
tp14
Rp15
tp16
a(g3
(g7
S'\x11\x18\x9e\x05G\x80\x99@'
p17
tp18
Rp19
g3
(g7
S'\xc65\x03\x04E\xa3\x88@'
p20
tp21
Rp22
tp23
aa(lp24
(g3
(g7
S'x[\xf2\xaeZ\xe3z@'
p25
tp26
Rp27
g3
(g7
S'\xacVlG\x99\xe0\x80@'
p28
tp29
Rp30
tp31
a(g3
(g7
S',\xbe-yW\xabr@'
p32
tp33
Rp34
g3
(g7
S'XlG\x99\x7fmr@'
p35
tp36
Rp37
tp38
aa.