(lp0
S'w_4732'
p1
a(lp2
(cnumpy.core.multiarray
scalar
p3
(cnumpy
dtype
p4
(S'f8'
p5
I0
I1
tp6
Rp7
(I3
S'<'
p8
NNNI-1
I-1
I0
tp9
bS'6\x81\xe1Yp\x8a\x93@'
p10
tp11
Rp12
g3
(g7
S'\x9b\x01\x82"\xebc\x97@'
p13
tp14
Rp15
tp16
a(g3
(g7
S'L\xdeU+\xb6\xa1\x9c@'
p17
tp18
Rp19
g3
(g7
S'\xb2\xdc\xd3\x08\xcb9\x8d@'
p20
tp21
Rp22
tp23
aa(lp24
(g3
(g7
S'7\xc2rO#vs@'
p25
tp26
Rp27
g3
(g7
S'5\xc2rO#\xcav@'
p28
tp29
Rp30
tp31
a(g3
(g7
S'\xdd\xd3\x08\xcb=\xf3q@'
p32
tp33
Rp34
g3
(g7
S'\xd6\x08\xcb=\x8dHh@'
p35
tp36
Rp37
tp38
aa.