(lp0
S'w_4885'
p1
a(lp2
(cnumpy.core.multiarray
scalar
p3
(cnumpy
dtype
p4
(S'f8'
p5
I0
I1
tp6
Rp7
(I3
S'<'
p8
NNNI-1
I-1
I0
tp9
bS'\x95w\xd5\x8am*\x95@'
p10
tp11
Rp12
g3
(g7
S'\x18\xdf\x96\xbc\xab(\x94@'
p13
tp14
Rp15
tp16
a(g3
(g7
S'$,\xf74BV\xa0@'
p17
tp18
Rp19
g3
(g7
S'6D\x95:\x89j\x86@'
p20
tp21
Rp22
tp23
aa(lp24
(g3
(g7
S'\xfc8\x07I\x1b\x12s@'
p25
tp26
Rp27
g3
(g7
S'2<\x0b\x8e\xf1\xa9h@'
p28
tp29
Rp30
tp31
a(g3
(g7
S'\xc4rO#,\x8bx@'
p32
tp33
Rp34
g3
(g7
S'\xcc=\x8d\xb0\xdc\x97y@'
p35
tp36
Rp37
tp38
aa.