(lp0
S'w_483'
p1
a(lp2
(cnumpy.core.multiarray
scalar
p3
(cnumpy
dtype
p4
(S'f8'
p5
I0
I1
tp6
Rp7
(I3
S'<'
p8
NNNI-1
I-1
I0
tp9
bS'\x0c\x8e\xf1m\xc9\xba\xa0@'
p10
tp11
Rp12
g3
(g7
S'\xe8a\xfa8\x07G\x9b@'
p13
tp14
Rp15
tp16
a(g3
(g7
S'N\x1f\xe7 iA\x9c@'
p17
tp18
Rp19
g3
(g7
S'^\xb5b;\xca\xfa\x9f@'
p20
tp21
Rp22
tp23
aa(lp24
(g3
(g7
S'"\xaa\xd4I\\Gj@'
p25
tp26
Rp27
g3
(g7
S'WlG\x99\x7f\x8dr@'
p28
tp29
Rp30
tp31
a(g3
(g7
S'J\\3@Plc@'
p32
tp33
Rp34
g3
(g7
S'"(\xb2^\xf6\x9bV@'
p35
tp36
Rp37
tp38
aa.