(lp0
S'w_4862'
p1
a(lp2
(cnumpy.core.multiarray
scalar
p3
(cnumpy
dtype
p4
(S'f8'
p5
I0
I1
tp6
Rp7
(I3
S'<'
p8
NNNI-1
I-1
I0
tp9
bS'n\nM`x\xaa\x90@'
p10
tp11
Rp12
g3
(g7
S'\x9a>\xceA\xd2+\x8b@'
p13
tp14
Rp15
tp16
a(g3
(g7
S"R'q\xcd\x80G\x9c@"
p17
tp18
Rp19
g3
(g7
S' \xdf\x96\xbc\xabfU@'
p20
tp21
Rp22
tp23
aa(lp24
(g3
(g7
S' e\xfe}\xdd4o@'
p25
tp26
Rp27
g3
(g7
S'\xaeZ\xb1\x1de6p@'
p28
tp29
Rp30
tp31
a(g3
(g7
S'\xe8a\xfa8\x07Y\x7f@'
p32
tp33
Rp34
g3
(g7
S'\xb1\x1de\xfe}\xb5~@'
p35
tp36
Rp37
tp38
aa.