(lp0
S'w_4882'
p1
a(lp2
(cnumpy.core.multiarray
scalar
p3
(cnumpy
dtype
p4
(S'f8'
p5
I0
I1
tp6
Rp7
(I3
S'<'
p8
NNNI-1
I-1
I0
tp9
bS'\xf6q\x0e\x92\xb6\xd3\x9b@'
p10
tp11
Rp12
g3
(g7
S'~\x9c\x83\xa4M\xfc\xa1@'
p13
tp14
Rp15
tp16
a(g3
(g7
S'J\\3@\x90\xb1\xa7@'
p17
tp18
Rp19
g3
(g7
S"\xaaR'q\xcdL\x91@"
p20
tp21
Rp22
tp23
aa(lp24
(g3
(g7
S'n\nM`x\xca\x81@'
p25
tp26
Rp27
g3
(g7
S'\x06\x86g\xc11\x1e}@'
p28
tp29
Rp30
tp31
a(g3
(g7
S'8\x85&0<\xab\x82@'
p32
tp33
Rp34
g3
(g7
S'>L\x1f\xe7 \xc7\x87@'
p35
tp36
Rp37
tp38
aa.