(lp0
S'w_4982'
p1
a(lp2
(cnumpy.core.multiarray
scalar
p3
(cnumpy
dtype
p4
(S'f8'
p5
I0
I1
tp6
Rp7
(I3
S'<'
p8
NNNI-1
I-1
I0
tp9
bS'TUUU\x95\xc5\x99@'
p10
tp11
Rp12
g3
(g7
S'XUUUU\r|@'
p13
tp14
Rp15
tp16
a(g3
(g7
S'\xaa\xaa\xaa\xaaj\xa8\xa1@'
p17
tp18
Rp19
g3
(g7
S'\xac\xaa\xaa\xaa*\xd9\x8b@'
p20
tp21
Rp22
tp23
aa(lp24
(g3
(g7
S'VUUU\xd5Ys@'
p25
tp26
Rp27
g3
(g7
S'\x8c\xe38\x8ecVf@'
p28
tp29
Rp30
tp31
a(g3
(g7
S'\xe48\x8e\xe38\xfct@'
p32
tp33
Rp34
g3
(g7
S'\x8e\xe38\x8e#Ws@'
p35
tp36
Rp37
tp38
aa.