(lp0
S'w_4925'
p1
a(lp2
(cnumpy.core.multiarray
scalar
p3
(cnumpy
dtype
p4
(S'f8'
p5
I0
I1
tp6
Rp7
(I3
S'<'
p8
NNNI-1
I-1
I0
tp9
bS'\xadVlG\x99v\x94@'
p10
tp11
Rp12
g3
(g7
S'\xb0\x9bB\x13\x18)\x97@'
p13
tp14
Rp15
tp16
a(g3
(g7
S'\x15\x96{\x1aaW\x9f@'
p17
tp18
Rp19
g3
(g7
S'\x1e\xa2J\x9d\xc4\xd1\x88@'
p20
tp21
Rp22
tp23
aa(lp24
(g3
(g7
S'\xd0I\\3@@j@'
p25
tp26
Rp27
g3
(g7
S'\n\x0c\xcf\x82cTp@'
p28
tp29
Rp30
tp31
a(g3
(g7
S'\xc4\xb7%\xef\xaa\xady@'
p32
tp33
Rp34
g3
(g7
S'pK\xdeU+\xeeq@'
p35
tp36
Rp37
tp38
aa.