(lp0
S'w_4902'
p1
a(lp2
(cnumpy.core.multiarray
scalar
p3
(cnumpy
dtype
p4
(S'f8'
p5
I0
I1
tp6
Rp7
(I3
S'<'
p8
NNNI-1
I-1
I0
tp9
bS'f?\x0f\xd3\xc77\x90@'
p10
tp11
Rp12
g3
(g7
S'\xc89H\xda\x10S\x96@'
p13
tp14
Rp15
tp16
a(g3
(g7
S'\xf4\xef\xeb\xa6\xd0\x02\x9e@'
p17
tp18
Rp19
g3
(g7
S'tO#,\xf70\x82@'
p20
tp21
Rp22
tp23
aa(lp24
(g3
(g7
S'!\xebe?\x0f+\x83@'
p25
tp26
Rp27
g3
(g7
S'R\xa5N\xe2\x9a\xc5p@'
p28
tp29
Rp30
tp31
a(g3
(g7
S'\x10]t\xd1E\x17o@'
p32
tp33
Rp34
g3
(g7
S'4\x81\xe1Yp\x18z@'
p35
tp36
Rp37
tp38
aa.