(lp0
S'w_5016'
p1
a(lp2
(cnumpy.core.multiarray
scalar
p3
(cnumpy
dtype
p4
(S'f8'
p5
I0
I1
tp6
Rp7
(I3
S'<'
p8
NNNI-1
I-1
I0
tp9
bS'\xf74\xc2rO\xa2\x8f@'
p10
tp11
Rp12
g3
(g7
S'g\x80\xa0\xc8\xfah\x95@'
p13
tp14
Rp15
tp16
a(g3
(g7
S'\x8e\xf1m\xc9;2\x9d@'
p17
tp18
Rp19
g3
(g7
S'\xaeVlG\x99\xd7\x80@'
p20
tp21
Rp22
tp23
aa(lp24
(g3
(g7
S"\x87\xa8R'q\xe9\x82@"
p25
tp26
Rp27
g3
(g7
S'H\xd6\xcb~\x1e\x9e|@'
p28
tp29
Rp30
tp31
a(g3
(g7
S':H\xda\x10U"v@'
p32
tp33
Rp34
g3
(g7
S'6@Pd\xbd\xe4u@'
p35
tp36
Rp37
tp38
aa.