(lp0
S'w_5071'
p1
a(lp2
(cnumpy.core.multiarray
scalar
p3
(cnumpy
dtype
p4
(S'f8'
p5
I0
I1
tp6
Rp7
(I3
S'<'
p8
NNNI-1
I-1
I0
tp9
bS'3\xc2rO#\xeb\x8d@'
p10
tp11
Rp12
g3
(g7
S'\xe2Yp\x8co\xc0\x98@'
p13
tp14
Rp15
tp16
a(g3
(g7
S'\x8a.\xba\xe8\xa20\x99@'
p17
tp18
Rp19
g3
(g7
S'\xf4m\xc9\xbbjL\x8a@'
p20
tp21
Rp22
tp23
aa(lp24
(g3
(g7
S'\xd8I\\3@(W@'
p25
tp26
Rp27
g3
(g7
S'4\xff\xben\n\xd3w@'
p28
tp29
Rp30
tp31
a(g3
(g7
S'r\xd1E\x17]Z|@'
p32
tp33
Rp34
g3
(g7
S'\x00\xbfn\nM\xbap@'
p35
tp36
Rp37
tp38
aa.