(lp0
S'w_502'
p1
a(lp2
(cnumpy.core.multiarray
scalar
p3
(cnumpy
dtype
p4
(S'f8'
p5
I0
I1
tp6
Rp7
(I3
S'<'
p8
NNNI-1
I-1
I0
tp9
bS'zSh\x02\xc3\xb9\x8d@'
p10
tp11
Rp12
g3
(g7
S'\x18]t\xd1E8\x93@'
p13
tp14
Rp15
tp16
a(g3
(g7
S'\xa7\rQ\xa5NW\x9d@'
p17
tp18
Rp19
g3
(g7
S'\xe0U+\xb6\xa3\x00z@'
p20
tp21
Rp22
tp23
aa(lp24
(g3
(g7
S'\xe4\x9eFX\xee\x81|@'
p25
tp26
Rp27
g3
(g7
S'z\x1aa\xb9\xa7\xa1q@'
p28
tp29
Rp30
tp31
a(g3
(g7
S'`\xb9\xa7\x11\x96g}@'
p32
tp33
Rp34
g3
(g7
S'j\x84\xe5\x9eF0\x81@'
p35
tp36
Rp37
tp38
aa.