(lp0
S'w_5107'
p1
a(lp2
(cnumpy.core.multiarray
scalar
p3
(cnumpy
dtype
p4
(S'f8'
p5
I0
I1
tp6
Rp7
(I3
S'<'
p8
NNNI-1
I-1
I0
tp9
bS'\x8e\xf1m\xc9\xbbh\x91@'
p10
tp11
Rp12
g3
(g7
S'\xa5\rQ\xa5N\xe0\x92@'
p13
tp14
Rp15
tp16
a(g3
(g7
S'"(\xb2^\xf6\xf1\x9c@'
p17
tp18
Rp19
g3
(g7
S'\xf80}\x9c\x83\x9c}@'
p20
tp21
Rp22
tp23
aa(lp24
(g3
(g7
S'|\xd9\xcf\xc3\xf4Y{@'
p25
tp26
Rp27
g3
(g7
S'\x8c.\xba\xe8\xa2\xb7q@'
p28
tp29
Rp30
tp31
a(g3
(g7
S'\x8c\xed(\xf3\xefkc@'
p32
tp33
Rp34
g3
(g7
S' \xe7 iC\xbay@'
p35
tp36
Rp37
tp38
aa.