(lp0
S'w_5159'
p1
a(lp2
(cnumpy.core.multiarray
scalar
p3
(cnumpy
dtype
p4
(S'f8'
p5
I0
I1
tp6
Rp7
(I3
S'<'
p8
NNNI-1
I-1
I0
tp9
bS'vO#,\xf7X\x8d@'
p10
tp11
Rp12
g3
(g7
S'b;\xca\xfc\xfb%\x90@'
p13
tp14
Rp15
tp16
a(g3
(g7
S'\xe7\x1c$m\x88\x17\x98@'
p17
tp18
Rp19
g3
(g7
S'\\t\xd1E\x17\xb1w@'
p20
tp21
Rp22
tp23
aa(lp24
(g3
(g7
S'\x0c\xcf\x82c|\x0fr@'
p25
tp26
Rp27
g3
(g7
S'\x08\xcb=\x8d\xb0\xf4h@'
p28
tp29
Rp30
tp31
a(g3
(g7
S'6D\x95:\x89\x9ft@'
p32
tp33
Rp34
g3
(g7
S'\x84\xa4\rQ\xa5\xda{@'
p35
tp36
Rp37
tp38
aa.