(lp0
S'w_5104'
p1
a(lp2
(cnumpy.core.multiarray
scalar
p3
(cnumpy
dtype
p4
(S'f8'
p5
I0
I1
tp6
Rp7
(I3
S'<'
p8
NNNI-1
I-1
I0
tp9
bS'8\x8e\xe38\x8ea\x91@'
p10
tp11
Rp12
g3
(g7
S'\x1d\xc7q\x1c\xc7o\x93@'
p13
tp14
Rp15
tp16
a(g3
(g7
S'UUUUU\xd3\x9a@'
p17
tp18
Rp19
g3
(g7
S'VUUUUQ\x84@'
p20
tp21
Rp22
tp23
aa(lp24
(g3
(g7
S'RUUUUUi@'
p25
tp26
Rp27
g3
(g7
S':\x8e\xe38\x0e\xf9f@'
p28
tp29
Rp30
tp31
a(g3
(g7
S'\xe38\x8e\xe38\xa5t@'
p32
tp33
Rp34
g3
(g7
S'\x1d\xc7q\x1cG}v@'
p35
tp36
Rp37
tp38
aa.