(lp0
S'w_5121'
p1
a(lp2
(cnumpy.core.multiarray
scalar
p3
(cnumpy
dtype
p4
(S'f8'
p5
I0
I1
tp6
Rp7
(I3
S'<'
p8
NNNI-1
I-1
I0
tp9
bS'\xde\x92w\xd5\x8aL\xa4@'
p10
tp11
Rp12
g3
(g7
S'\xe2Yp\x8coj\xa2@'
p13
tp14
Rp15
tp16
a(g3
(g7
S':D\x95:\x89\x8a\xaa@'
p17
tp18
Rp19
g3
(g7
S'\x02A\x91\xf5\xb2\xdd\x96@'
p20
tp21
Rp22
tp23
aa(lp24
(g3
(g7
S'(0<\x0b\x8e\xb9\x7f@'
p25
tp26
Rp27
g3
(g7
S'\x14\xd3\xc79H\xdan@'
p28
tp29
Rp30
tp31
a(g3
(g7
S'8D\x95:\x89cn@'
p32
tp33
Rp34
g3
(g7
S'@\xceA\xd2\x86@\x80@'
p35
tp36
Rp37
tp38
aa.