(lp0
S'w_5139'
p1
a(lp2
(cnumpy.core.multiarray
scalar
p3
(cnumpy
dtype
p4
(S'f8'
p5
I0
I1
tp6
Rp7
(I3
S'<'
p8
NNNI-1
I-1
I0
tp9
bS'\xd0\x00A\x91\xf5\xae\x8f@'
p10
tp11
Rp12
g3
(g7
S'\x94\xf9\xf7uSf\x9a@'
p13
tp14
Rp15
tp16
a(g3
(g7
S' \xe7 iCR\x9d@'
p17
tp18
Rp19
g3
(g7
S'f\xbd\xec\xe7a\xf6\x88@'
p20
tp21
Rp22
tp23
aa(lp24
(g3
(g7
S' ,\xf74\xc2\x92v@'
p25
tp26
Rp27
g3
(g7
S'\xb0\xdc\xd3\x08\xcbe\x81@'
p28
tp29
Rp30
tp31
a(g3
(g7
S'L#,\xf74\xc6}@'
p32
tp33
Rp34
g3
(g7
S'\x94{\x1aa\xb9\xbfn@'
p35
tp36
Rp37
tp38
aa.