(lp0
S'w_5587'
p1
a(lp2
(cnumpy.core.multiarray
scalar
p3
(cnumpy
dtype
p4
(S'f8'
p5
I0
I1
tp6
Rp7
(I3
S'<'
p8
NNNI-1
I-1
I0
tp9
bS'4\xff\xben\nK\x94@'
p10
tp11
Rp12
g3
(g7
S'H\xda\x10U\xea"\x96@'
p13
tp14
Rp15
tp16
a(g3
(g7
S'\xa3J\x9d\xc45\x02\xa0@'
p17
tp18
Rp19
g3
(g7
S'f\xbd\xec\xe7a\xf6\x88@'
p20
tp21
Rp22
tp23
aa(lp24
(g3
(g7
S'\xe1\x1c$m\x88\xfez@'
p25
tp26
Rp27
g3
(g7
S'E\x95:\x89k\x8aq@'
p28
tp29
Rp30
tp31
a(g3
(g7
S'\xe9$\xae\x19 \x98r@'
p32
tp33
Rp34
g3
(g7
S'\xe5\x1c$m\x88\xd6v@'
p35
tp36
Rp37
tp38
aa.