(lp0
S'w_5611'
p1
a(lp2
(cnumpy.core.multiarray
scalar
p3
(cnumpy
dtype
p4
(S'f8'
p5
I0
I1
tp6
Rp7
(I3
S'<'
p8
NNNI-1
I-1
I0
tp9
bS'j\x08\x95t\xa3,\x8f@'
p10
tp11
Rp12
g3
(g7
S'u\xa1\x13\xb1:\xbc\x91@'
p13
tp14
Rp15
tp16
a(g3
(g7
S'\xe3\xb5\xc6\xf0\xd9\\\x9c@'
p17
tp18
Rp19
g3
(g7
S'(\xc3g\x83H\x97s@'
p20
tp21
Rp22
tp23
aa(lp24
(g3
(g7
S'\x04\x83\xc7\xf2^]o@'
p25
tp26
Rp27
g3
(g7
S'b\xf0X\xde\xab1w@'
p28
tp29
Rp30
tp31
a(g3
(g7
S'2\xfb\xf3\xe14\\\x7f@'
p32
tp33
Rp34
g3
(g7
S't \xd1\n\x9b\x1f}@'
p35
tp36
Rp37
tp38
aa.