(lp0
S'w_5753'
p1
a(lp2
(cnumpy.core.multiarray
scalar
p3
(cnumpy
dtype
p4
(S'f8'
p5
I0
I1
tp6
Rp7
(I3
S'<'
p8
NNNI-1
I-1
I0
tp9
bS'\xb4^\xf6\xf30{\x94@'
p10
tp11
Rp12
g3
(g7
S'zW\xad\xd8\x8e0\x93@'
p13
tp14
Rp15
tp16
a(g3
(g7
S'&m\x88*u\x10\x9b@'
p17
tp18
Rp19
g3
(g7
S'\xb6b;\xca\xfc\xf7\x8a@'
p20
tp21
Rp22
tp23
aa(lp24
(g3
(g7
S'T+\xb6\xa3\xcc\xf7h@'
p25
tp26
Rp27
g3
(g7
S'U\xa9\x93\xb8f\x80i@'
p28
tp29
Rp30
tp31
a(g3
(g7
S'G\xda\x10U\xea\x80q@'
p32
tp33
Rp34
g3
(g7
S'pG\x99\x7f_gP@'
p35
tp36
Rp37
tp38
aa.