(lp0
S'w_577'
p1
a(lp2
(cnumpy.core.multiarray
scalar
p3
(cnumpy
dtype
p4
(S'f8'
p5
I0
I1
tp6
Rp7
(I3
S'<'
p8
NNNI-1
I-1
I0
tp9
bS'P\xcay0\xf9l\x95@'
p10
tp11
Rp12
g3
(g7
S'\xdf\xab-r\x9d\x07\x94@'
p13
tp14
Rp15
tp16
a(g3
(g7
S'\x06\x10(d\xfa\xf0\xa0@'
p17
tp18
Rp19
g3
(g7
S'\x00\xf0\xd7\x9b\x05\x06s@'
p20
tp21
Rp22
tp23
aa(lp24
(g3
(g7
S'\xd2\xfe|8\rqw@'
p25
tp26
Rp27
g3
(g7
S'\xa8\x9e\x8c\xdf.\xe3|@'
p28
tp29
Rp30
tp31
a(g3
(g7
S'\x96l\x8ff\x00%{@'
p32
tp33
Rp34
g3
(g7
S"D'bu\xa5\x8c\x81@"
p35
tp36
Rp37
tp38
aa.