(lp0
S'w_5864'
p1
a(lp2
(cnumpy.core.multiarray
scalar
p3
(cnumpy
dtype
p4
(S'f8'
p5
I0
I1
tp6
Rp7
(I3
S'<'
p8
NNNI-1
I-1
I0
tp9
bS'\x9b\xc45\x03\x04^\x96@'
p10
tp11
Rp12
g3
(g7
S'\xfa\xf7uSho\x97@'
p13
tp14
Rp15
tp16
a(g3
(g7
S'.<\x0b\x8e1\x85\xa2@'
p17
tp18
Rp19
g3
(g7
S'\xc0-yW\xad\x8d\x82@'
p20
tp21
Rp22
tp23
aa(lp24
(g3
(g7
S'o\x8coK\xde\xb3\x84@'
p25
tp26
Rp27
g3
(g7
S'\x84\xe5\x9eFXfw@'
p28
tp29
Rp30
tp31
a(g3
(g7
S'\x00\xc3\xb3\xe0\x187t@'
p32
tp33
Rp34
g3
(g7
S'(0<\x0b\x8eIx@'
p35
tp36
Rp37
tp38
aa.