(lp0
S'w_5946'
p1
a(lp2
(cnumpy.core.multiarray
scalar
p3
(cnumpy
dtype
p4
(S'f8'
p5
I0
I1
tp6
Rp7
(I3
S'<'
p8
NNNI-1
I-1
I0
tp9
bS'9\x8e\xe38\xce%\x8d@'
p10
tp11
Rp12
g3
(g7
S'VUUU\xd5\xc9\x94@'
p13
tp14
Rp15
tp16
a(g3
(g7
S'VUUU\xe5\x00\x98@'
p17
tp18
Rp19
g3
(g7
S'r\x1c\xc7q\\n\x87@'
p20
tp21
Rp22
tp23
aa(lp24
(g3
(g7
S'\x8c\xe38\x8ecnf@'
p25
tp26
Rp27
g3
(g7
S'\xc6q\x1c\xc7\xf1\rl@'
p28
tp29
Rp30
tp31
a(g3
(g7
S'\xfe\xff\xff\xff\xffaw@'
p32
tp33
Rp34
g3
(g7
S'\xc7q\x1c\xc71Nq@'
p35
tp36
Rp37
tp38
aa.