(lp0
S'w_6116'
p1
a(lp2
(cnumpy.core.multiarray
scalar
p3
(cnumpy
dtype
p4
(S'f8'
p5
I0
I1
tp6
Rp7
(I3
S'<'
p8
NNNI-1
I-1
I0
tp9
bS'\x00\x00\x00\x00\x00\xae\x96@'
p10
tp11
Rp12
g3
(g7
S'\x8aV\xd8\x1cH*\x9c@'
p13
tp14
Rp15
tp16
a(g3
(g7
S'R\xce\x83\xc9w\x1a\xa0@'
p17
tp18
Rp19
g3
(g7
S'p\x14\xb3?\x1fz\x8f@'
p20
tp21
Rp22
tp23
aa(lp24
(g3
(g7
S'\xbaQ\xcc\xfe|@y@'
p25
tp26
Rp27
g3
(g7
S'\xcc{\xb5E\xaeQz@'
p28
tp29
Rp30
tp31
a(g3
(g7
S'\x82D+l\x0e(r@'
p32
tp33
Rp34
g3
(g7
S'\x89\xd3\x10*\xe9xx@'
p35
tp36
Rp37
tp38
aa.