(lp0
S'w_6137'
p1
a(lp2
(cnumpy.core.multiarray
scalar
p3
(cnumpy
dtype
p4
(S'f8'
p5
I0
I1
tp6
Rp7
(I3
S'<'
p8
NNNI-1
I-1
I0
tp9
bS'\x0c\x8e\xf1m\xc9\xb9\x92@'
p10
tp11
Rp12
g3
(g7
S'\xf5q\x0e\x926B\x95@'
p13
tp14
Rp15
tp16
a(g3
(g7
S'\xcd~\x1e\xa6\x8fr\xa0@'
p17
tp18
Rp19
g3
(g7
S'L\\3@P\\}@'
p20
tp21
Rp22
tp23
aa(lp24
(g3
(g7
S'\t\xcb=\x8d\xb0d\x83@'
p25
tp26
Rp27
g3
(g7
S'\xe4\x9eFX\xee\x97u@'
p28
tp29
Rp30
tp31
a(g3
(g7
S'\xa0FX\xeei*r@'
p32
tp33
Rp34
g3
(g7
S'\x18a\xb9\xa7\x11\xde~@'
p35
tp36
Rp37
tp38
aa.