(lp0
S'w_6192'
p1
a(lp2
(cnumpy.core.multiarray
scalar
p3
(cnumpy
dtype
p4
(S'f8'
p5
I0
I1
tp6
Rp7
(I3
S'<'
p8
NNNI-1
I-1
I0
tp9
bS'\x8d\xe38\x8e\xe36\x92@'
p10
tp11
Rp12
g3
(g7
S'9\x8e\xe38\x8ea\x95@'
p13
tp14
Rp15
tp16
a(g3
(g7
S'\x8e\xe38\x8e\xe3w\xa0@'
p17
tp18
Rp19
g3
(g7
S'VUUUUQ\x81@'
p20
tp21
Rp22
tp23
aa(lp24
(g3
(g7
S'\x1e\xc7q\x1c\xc7\xd6j@'
p25
tp26
Rp27
g3
(g7
S'\xaa\xaa\xaa\xaa*$y@'
p28
tp29
Rp30
tp31
a(g3
(g7
S'\xe48\x8e\xe3\xb8q\x84@'
p32
tp33
Rp34
g3
(g7
S'VUUU\xd5\xe6t@'
p35
tp36
Rp37
tp38
aa.