(lp0
S'w_6143'
p1
a(lp2
(cnumpy.core.multiarray
scalar
p3
(cnumpy
dtype
p4
(S'f8'
p5
I0
I1
tp6
Rp7
(I3
S'<'
p8
NNNI-1
I-1
I0
tp9
bS'\xd0A\xd2\x86\xa8N\x8f@'
p10
tp11
Rp12
g3
(g7
S'"\xaa\xd4I\\1\x94@'
p13
tp14
Rp15
tp16
a(g3
(g7
S'"iCT\xa9\x92\xa0@'
p17
tp18
Rp19
g3
(g7
S'T\xe6\xdf\xd7M\x99y@'
p20
tp21
Rp22
tp23
aa(lp24
(g3
(g7
S'c\xfe}\xdd\x14"\x82@'
p25
tp26
Rp27
g3
(g7
S'\xac\x19 (\xb2.q@'
p28
tp29
Rp30
tp31
a(g3
(g7
S'~c|[\xf2<}@'
p32
tp33
Rp34
g3
(g7
S'\xf6uSh\x02\xd6\x81@'
p35
tp36
Rp37
tp38
aa.