(lp0
S'w_6186'
p1
a(lp2
(cnumpy.core.multiarray
scalar
p3
(cnumpy
dtype
p4
(S'f8'
p5
I0
I1
tp6
Rp7
(I3
S'<'
p8
NNNI-1
I-1
I0
tp9
bS'\x11U\xea$\xae\x85\x8f@'
p10
tp11
Rp12
g3
(g7
S'\x88k\x06\x08\x8a8\x88@'
p13
tp14
Rp15
tp16
a(g3
(g7
S'R\xe6\xdf\xd7M\xcf\x9a@'
p17
tp18
Rp19
g3
(g7
S'\xf8<L\x1f\xe7\x90`@'
p20
tp21
Rp22
tp23
aa(lp24
(g3
(g7
S'e\xc11\xbe-\xa5t@'
p25
tp26
Rp27
g3
(g7
S'\x1ee\xfe}\xdd|r@'
p28
tp29
Rp30
tp31
a(g3
(g7
S'\xefm\xc9\xbbj\xc1r@'
p32
tp33
Rp34
g3
(g7
S'"\xaa\xd4I\\\xc7{@'
p35
tp36
Rp37
tp38
aa.