(lp0
S'w_6233'
p1
a(lp2
(cnumpy.core.multiarray
scalar
p3
(cnumpy
dtype
p4
(S'f8'
p5
I0
I1
tp6
Rp7
(I3
S'<'
p8
NNNI-1
I-1
I0
tp9
bS'q\x1c\xc7q|Z\x91@'
p10
tp11
Rp12
g3
(g7
S'\xab\xaa\xaa\xaa\xda\x03\x97@'
p13
tp14
Rp15
tp16
a(g3
(g7
S'VUUUU\xe0\x9a@'
p17
tp18
Rp19
g3
(g7
S':\x8e\xe38.T\x8c@'
p20
tp21
Rp22
tp23
aa(lp24
(g3
(g7
S'\xc7q\x1c\xc7\xf1q{@'
p25
tp26
Rp27
g3
(g7
S'\x1d\xc7q\x1c\xc7\x91v@'
p28
tp29
Rp30
tp31
a(g3
(g7
S'\x8e\xe38\x8e\xe3vm@'
p32
tp33
Rp34
g3
(g7
S'VUUUU\xa0h@'
p35
tp36
Rp37
tp38
aa.