(lp0
S'w_6327'
p1
a(lp2
(cnumpy.core.multiarray
scalar
p3
(cnumpy
dtype
p4
(S'f8'
p5
I0
I1
tp6
Rp7
(I3
S'<'
p8
NNNI-1
I-1
I0
tp9
bS'N\xe2\x9a\x01\x82\x01\x8b@'
p10
tp11
Rp12
g3
(g7
S'V+\xb6\xa3L\xf4\x97@'
p13
tp14
Rp15
tp16
a(g3
(g7
S'p\x8coK^\x17\x99@'
p17
tp18
Rp19
g3
(g7
S'\\p\x8coK\xfd\x88@'
p20
tp21
Rp22
tp23
aa(lp24
(g3
(g7
S'\xa4\x8fs\x90\xb4Qh@'
p25
tp26
Rp27
g3
(g7
S'ax\x16\x1c\xe3\xd3u@'
p28
tp29
Rp30
tp31
a(g3
(g7
S'N\xe2\x9a\x01\x82j\x80@'
p32
tp33
Rp34
g3
(g7
S'h\xfe}\xdd\x14zk@'
p35
tp36
Rp37
tp38
aa.