(lp0
S'w_637'
p1
a(lp2
(cnumpy.core.multiarray
scalar
p3
(cnumpy
dtype
p4
(S'f8'
p5
I0
I1
tp6
Rp7
(I3
S'<'
p8
NNNI-1
I-1
I0
tp9
bS':H\xda\x10Uh\x95@'
p10
tp11
Rp12
g3
(g7
S'\x83"\xebe?p\x93@'
p13
tp14
Rp15
tp16
a(g3
(g7
S'Th\x02\xc3\xb3a\x9f@'
p17
tp18
Rp19
g3
(g7
S'\x98\xbc\xabVl%\x86@'
p20
tp21
Rp22
tp23
aa(lp24
(g3
(g7
S'\xf1\xaeZ\xb1\x1d-|@'
p25
tp26
Rp27
g3
(g7
S'v\x12\xd7\x0c\x10\\r@'
p28
tp29
Rp30
tp31
a(g3
(g7
S'\xe2\x1c$m\x88Zf@'
p32
tp33
Rp34
g3
(g7
S'L\\3@P\xb4d@'
p35
tp36
Rp37
tp38
aa.