(lp0
S'w_6388'
p1
a(lp2
(cnumpy.core.multiarray
scalar
p3
(cnumpy
dtype
p4
(S'f8'
p5
I0
I1
tp6
Rp7
(I3
S'<'
p8
NNNI-1
I-1
I0
tp9
bS'\x8foK\xdeU)\x9b@'
p10
tp11
Rp12
g3
(g7
S'\xd2E\x17]t\x90\xa0@'
p13
tp14
Rp15
tp16
a(g3
(g7
S':\x85&0<j\xa6@'
p17
tp18
Rp19
g3
(g7
S'l\xc5v\x94\xf95\x92@'
p20
tp21
Rp22
tp23
aa(lp24
(g3
(g7
S'M\xa1\t\x0c\xcf\xe0\x83@'
p25
tp26
Rp27
g3
(g7
S'Z\xeei\x84\xe5\xf2p@'
p28
tp29
Rp30
tp31
a(g3
(g7
S'6\xc2rO#\x98{@'
p32
tp33
Rp34
g3
(g7
S'\xf3\xaeZ\xb1\x1dI\x84@'
p35
tp36
Rp37
tp38
aa.