(lp0
S'w_6476'
p1
a(lp2
(cnumpy.core.multiarray
scalar
p3
(cnumpy
dtype
p4
(S'f8'
p5
I0
I1
tp6
Rp7
(I3
S'<'
p8
NNNI-1
I-1
I0
tp9
bS'z\xb5E\xae3\xff\x9a@'
p10
tp11
Rp12
g3
(g7
S"F\xac\xae\xb4C'\x93@"
p13
tp14
Rp15
tp16
a(g3
(g7
S'`s \xd1\n\x9a\xa3@'
p17
tp18
Rp19
g3
(g7
S'*bu\xa5\x1dF\x81@'
p20
tp21
Rp22
tp23
aa(lp24
(g3
(g7
S'\x166\x07\x12\xadF\x80@'
p25
tp26
Rp27
g3
(g7
S'\xfcr\x9f\x8edmw@'
p28
tp29
Rp30
tp31
a(g3
(g7
S'\x1a\xbbSQK\x80w@'
p32
tp33
Rp34
g3
(g7
S'\x94n\x14\xb3?es@'
p35
tp36
Rp37
tp38
aa.