(lp0
S'w_6411'
p1
a(lp2
(cnumpy.core.multiarray
scalar
p3
(cnumpy
dtype
p4
(S'f8'
p5
I0
I1
tp6
Rp7
(I3
S'<'
p8
NNNI-1
I-1
I0
tp9
bS'\xf0P\xcay0Uw@'
p10
tp11
Rp12
g3
(g7
S'\xfan\x95\xf5e\xfd\x97@'
p13
tp14
Rp15
tp16
a(g3
(g7
S'\\\xe2\xb5\xc6\xf0_\x93@'
p17
tp18
Rp19
g3
(g7
S'\xce\x00\x02\x85L<\x88@'
p20
tp21
Rp22
tp23
aa(lp24
(g3
(g7
S'\x164\x82\xc5mzv@'
p25
tp26
Rp27
g3
(g7
S'.p\x18\xbd\xd8\xe5}@'
p28
tp29
Rp30
tp31
a(g3
(g7
S']i\x87R\xce\x17\x81@'
p32
tp33
Rp34
g3
(g7
S'N=\x19\xbf]rq@'
p35
tp36
Rp37
tp38
aa.