(lp0
S'w_6480'
p1
a(lp2
(cnumpy.core.multiarray
scalar
p3
(cnumpy
dtype
p4
(S'f8'
p5
I0
I1
tp6
Rp7
(I3
S'<'
p8
NNNI-1
I-1
I0
tp9
bS'$,\xf74\xc2n\x8f@'
p10
tp11
Rp12
g3
(g7
S'\xa6N\xe2\x9a\x01\x80\x92@'
p13
tp14
Rp15
tp16
a(g3
(g7
S'\xf84\xc2rO!\x9c@'
p17
tp18
Rp19
g3
(g7
S'\x0cM`x\x16\x14s@'
p20
tp21
Rp22
tp23
aa(lp24
(g3
(g7
S'\xb8f\x80\xa0\xc8\x8ao@'
p25
tp26
Rp27
g3
(g7
S'n\nM`xtw@'
p28
tp29
Rp30
tp31
a(g3
(g7
S'8D\x95:\x89\xd3{@'
p32
tp33
Rp34
g3
(g7
S'\x10\x14Y/\xfb\x9f\x80@'
p35
tp36
Rp37
tp38
aa.