(lp0
S'w_6489'
p1
a(lp2
(cnumpy.core.multiarray
scalar
p3
(cnumpy
dtype
p4
(S'f8'
p5
I0
I1
tp6
Rp7
(I3
S'<'
p8
NNNI-1
I-1
I0
tp9
bS'\xd0\x82c|[\xee\x8e@'
p10
tp11
Rp12
g3
(g7
S'\x04\x04E\xd6\xcbz\x8e@'
p13
tp14
Rp15
tp16
a(g3
(g7
S'\xa4J\x9d\xc45\x01\x9c@'
p17
tp18
Rp19
g3
(g7
S'0\xae\x19 (\xa2n@'
p20
tp21
Rp22
tp23
aa(lp24
(g3
(g7
S'$\xae\x19 (\xe2j@'
p25
tp26
Rp27
g3
(g7
S'4@Pd\xbdpu@'
p28
tp29
Rp30
tp31
a(g3
(g7
S'\xc8z\xd9\xcf\xc3h\x7f@'
p32
tp33
Rp34
g3
(g7
S'\x11U\xea$\xae\x91x@'
p35
tp36
Rp37
tp38
aa.