(lp0
S'w_6468'
p1
a(lp2
(cnumpy.core.multiarray
scalar
p3
(cnumpy
dtype
p4
(S'f8'
p5
I0
I1
tp6
Rp7
(I3
S'<'
p8
NNNI-1
I-1
I0
tp9
bS'E\x99\x7f_7\xf4\x87@'
p10
tp11
Rp12
g3
(g7
S'\xf5q\x0e\x9261\x99@'
p13
tp14
Rp15
tp16
a(g3
(g7
S'\x00A\x91\xf5\xb2w\x97@'
p17
tp18
Rp19
g3
(g7
S'2\xfby\x98>g\x8b@'
p20
tp21
Rp22
tp23
aa(lp24
(g3
(g7
S'\x9e\x83\xa4\rQ\x15{@'
p25
tp26
Rp27
g3
(g7
S':H\xda\x10U\xa2s@'
p28
tp29
Rp30
tp31
a(g3
(g7
S'\xc0n\nM`8[@'
p32
tp33
Rp34
g3
(g7
S'8\x85&0<\xc3y@'
p35
tp36
Rp37
tp38
aa.