(lp0
S'w_6497'
p1
a(lp2
(cnumpy.core.multiarray
scalar
p3
(cnumpy
dtype
p4
(S'f8'
p5
I0
I1
tp6
Rp7
(I3
S'<'
p8
NNNI-1
I-1
I0
tp9
bS'`\xf6\xf30}\x9a\x93@'
p10
tp11
Rp12
g3
(g7
S'$,\xf74\xc2p\x93@'
p13
tp14
Rp15
tp16
a(g3
(g7
S'\xf8\xf30}\x9c\x81\x9c@'
p17
tp18
Rp19
g3
(g7
S'\xca\xbbj\xc5v\x90\x81@'
p20
tp21
Rp22
tp23
aa(lp24
(g3
(g7
S'\xbc\xa7\x11\x96{bn@'
p25
tp26
Rp27
g3
(g7
S'\xba\xa7\x11\x96{6|@'
p28
tp29
Rp30
tp31
a(g3
(g7
S'\xde\xd3\x08\xcb=uv@'
p32
tp33
Rp34
g3
(g7
S'\xc3rO#,\xc7s@'
p35
tp36
Rp37
tp38
aa.