(lp0
S'w_6414'
p1
a(lp2
(cnumpy.core.multiarray
scalar
p3
(cnumpy
dtype
p4
(S'f8'
p5
I0
I1
tp6
Rp7
(I3
S'<'
p8
NNNI-1
I-1
I0
tp9
bS'\xe4\xdb\x92w\xd5\x82}@'
p10
tp11
Rp12
g3
(g7
S'\xbfn\nM`v\x9a@'
p13
tp14
Rp15
tp16
a(g3
(g7
S'\x08\x08\x8a\xac\x97\xfb\x94@'
p17
tp18
Rp19
g3
(g7
S'`7\x85&08\x8b@'
p20
tp21
Rp22
tp23
aa(lp24
(g3
(g7
S'pK\xdeU+\xb6\x82@'
p25
tp26
Rp27
g3
(g7
S'l\xc5v\x94\xf9Su@'
p28
tp29
Rp30
tp31
a(g3
(g7
S'<L\x1f\xe7 Qh@'
p32
tp33
Rp34
g3
(g7
S'O\xa1\t\x0c\xcf\xc6|@'
p35
tp36
Rp37
tp38
aa.