(lp0
S'w_6542'
p1
a(lp2
(cnumpy.core.multiarray
scalar
p3
(cnumpy
dtype
p4
(S'f8'
p5
I0
I1
tp6
Rp7
(I3
S'<'
p8
NNNI-1
I-1
I0
tp9
bS'\x10\x14Y/\xfbw\x90@'
p10
tp11
Rp12
g3
(g7
S'\xf7\xf30}\x9c\x81\x94@'
p13
tp14
Rp15
tp16
a(g3
(g7
S'&\xae\x19 (\xb0\x9a@'
p17
tp18
Rp19
g3
(g7
S'xSh\x02\xc3\xaf\x80@'
p20
tp21
Rp22
tp23
aa(lp24
(g3
(g7
S'\xbe\xec\xe7a\xfazq@'
p25
tp26
Rp27
g3
(g7
S'\xc8\xbbj\xc5vR~@'
p28
tp29
Rp30
tp31
a(g3
(g7
S'BPd\xbd\xec\xaf{@'
p32
tp33
Rp34
g3
(g7
S'd\xbd\xec\xe7a\xeae@'
p35
tp36
Rp37
tp38
aa.