(lp0
S'w_6558'
p1
a(lp2
(cnumpy.core.multiarray
scalar
p3
(cnumpy
dtype
p4
(S'f8'
p5
I0
I1
tp6
Rp7
(I3
S'<'
p8
NNNI-1
I-1
I0
tp9
bS't\xd1E\x17]U\x8f@'
p10
tp11
Rp12
g3
(g7
S'\x00\x00\x00\x00\x00\\\x8b@'
p13
tp14
Rp15
tp16
a(g3
(g7
S'\xa2\x8b.\xba\xe8\xba\x9d@'
p17
tp18
Rp19
g3
(g7
S'\xd0E\x17]t9c@'
p20
tp21
Rp22
tp23
aa(lp24
(g3
(g7
S'\xc8v\x94\xf9\xf7iz@'
p25
tp26
Rp27
g3
(g7
S'R\xe6\xdf\xd7M\x15s@'
p28
tp29
Rp30
tp31
a(g3
(g7
S"\xaeVlG\x99'}@"
p32
tp33
Rp34
g3
(g7
S'@\x0f\xd3\xc79\xfc|@'
p35
tp36
Rp37
tp38
aa.