(lp0
S'w_6819'
p1
a(lp2
(cnumpy.core.multiarray
scalar
p3
(cnumpy
dtype
p4
(S'f8'
p5
I0
I1
tp6
Rp7
(I3
S'<'
p8
NNNI-1
I-1
I0
tp9
bS'\x8a*u\x12\xd7k\x93@'
p10
tp11
Rp12
g3
(g7
S'J\\3@P\x85\x94@'
p13
tp14
Rp15
tp16
a(g3
(g7
S'\xcc=\x8d\xb0\\\xe2\xa0@'
p17
tp18
Rp19
g3
(g7
S'\xf4\xeb\xa6\xd0\x04f\x7f@'
p20
tp21
Rp22
tp23
aa(lp24
(g3
(g7
S'T\xea$\xae\x19Fp@'
p25
tp26
Rp27
g3
(g7
S'\x946D\x95:\xb9w@'
p28
tp29
Rp30
tp31
a(g3
(g7
S'\x83c|[\xf2\xf7\x81@'
p32
tp33
Rp34
g3
(g7
S'x\x94\xf9\xf7u\xb7x@'
p35
tp36
Rp37
tp38
aa.