(lp0
S'w_7019'
p1
a(lp2
(cnumpy.core.multiarray
scalar
p3
(cnumpy
dtype
p4
(S'f8'
p5
I0
I1
tp6
Rp7
(I3
S'<'
p8
NNNI-1
I-1
I0
tp9
bS'\xaa\xaa\xaa\xaaJ\x82\x93@'
p10
tp11
Rp12
g3
(g7
S'r\x1c\xc7q\xdcz\x8c@'
p13
tp14
Rp15
tp16
a(g3
(g7
S'\x1b\xc7q\x1c\xc7\x19\x9e@'
p17
tp18
Rp19
g3
(g7
S'\x90\xe38\x8ec\xd4t@'
p20
tp21
Rp22
tp23
aa(lp24
(g3
(g7
S'WUUU\xd5Zx@'
p25
tp26
Rp27
g3
(g7
S'\x02\x00\x00\x00\x00ce@'
p28
tp29
Rp30
tp31
a(g3
(g7
S'VUUUUfo@'
p32
tp33
Rp34
g3
(g7
S'\x8f\xe38\x8e\xe3kv@'
p35
tp36
Rp37
tp38
aa.