(lp0
S'w_7098'
p1
a(lp2
(cnumpy.core.multiarray
scalar
p3
(cnumpy
dtype
p4
(S'f8'
p5
I0
I1
tp6
Rp7
(I3
S'<'
p8
NNNI-1
I-1
I0
tp9
bS'\xc3\xf4q\x0e\x92\xaa\x93@'
p10
tp11
Rp12
g3
(g7
S';\x89k\x06\x08\xae\x92@'
p13
tp14
Rp15
tp16
a(g3
(g7
S'\xe7 iCT{\x9d@'
p17
tp18
Rp19
g3
(g7
S'\xc0n\nM`\xea\x84@'
p20
tp21
Rp22
tp23
aa(lp24
(g3
(g7
S'\xf5\xef\xeb\xa6\xd0\x8cz@'
p25
tp26
Rp27
g3
(g7
S'\xfc\xba)4\x81\xd9m@'
p28
tp29
Rp30
tp31
a(g3
(g7
S'\x16\x96{\x1aaYc@'
p32
tp33
Rp34
g3
(g7
S'P#,\xf74\xbai@'
p35
tp36
Rp37
tp38
aa.