(lp0
S'w_7044'
p1
a(lp2
(cnumpy.core.multiarray
scalar
p3
(cnumpy
dtype
p4
(S'f8'
p5
I0
I1
tp6
Rp7
(I3
S'<'
p8
NNNI-1
I-1
I0
tp9
bS'\x00\x00\x00\x00\x00d\x87@'
p10
tp11
Rp12
g3
(g7
S'u\xd1E\x17\xdd\x02\x96@'
p13
tp14
Rp15
tp16
a(g3
(g7
S'\xd1E\x17]\xf4\x92\x99@'
p17
tp18
Rp19
g3
(g7
S'x\xd1E\x17]\xca|@'
p20
tp21
Rp22
tp23
aa(lp24
(g3
(g7
S'\xc0n\nM`\x98n@'
p25
tp26
Rp27
g3
(g7
S'\xba\xe8\xa2\x8b.:z@'
p28
tp29
Rp30
tp31
a(g3
(g7
S'8D\x95:\x89W\x81@'
p32
tp33
Rp34
g3
(g7
S'\xf0,8\xc6\xb7\xb5}@'
p35
tp36
Rp37
tp38
aa.