(lp0
S'w_7109'
p1
a(lp2
(cnumpy.core.multiarray
scalar
p3
(cnumpy
dtype
p4
(S'f8'
p5
I0
I1
tp6
Rp7
(I3
S'<'
p8
NNNI-1
I-1
I0
tp9
bS'8\x8e\xe38\x8e\xdf\x8c@'
p10
tp11
Rp12
g3
(g7
S'\x1d\xc7q\x1c\xc7o\x91@'
p13
tp14
Rp15
tp16
a(g3
(g7
S'UUUUU\xd3\x96@'
p17
tp18
Rp19
g3
(g7
S':\x8e\xe38\x8e\xdf\x83@'
p20
tp21
Rp22
tp23
aa(lp24
(g3
(g7
S'VUUUU\xd5[@'
p25
tp26
Rp27
g3
(g7
S'\xab\xaa\xaa\xaa\xaa*p@'
p28
tp29
Rp30
tp31
a(g3
(g7
S'TUUUU\x1dv@'
p32
tp33
Rp34
g3
(g7
S'VUUUUUf@'
p35
tp36
Rp37
tp38
aa.