(lp0
S'w_713'
p1
a(lp2
(cnumpy.core.multiarray
scalar
p3
(cnumpy
dtype
p4
(S'f8'
p5
I0
I1
tp6
Rp7
(I3
S'<'
p8
NNNI-1
I-1
I0
tp9
bS'=L\x1f\xe7\xa0\x0e\x94@'
p10
tp11
Rp12
g3
(g7
S' (\xb2^\xf6.\x9b@'
p13
tp14
Rp15
tp16
a(g3
(g7
S'\xcaz\xd9\xcf\x03\x17\xa0@'
p17
tp18
Rp19
g3
(g7
S'\x8doK\xde\xd5\t\x90@'
p20
tp21
Rp22
tp23
aa(lp24
(g3
(g7
S'H\x9d\xc45\x032}@'
p25
tp26
Rp27
g3
(g7
S'y\xd5\x8a\xed(\tw@'
p28
tp29
Rp30
tp31
a(g3
(g7
S'\xc8\xfc\xfb\xba)\x94m@'
p32
tp33
Rp34
g3
(g7
S'\x946D\x95:\xe1n@'
p35
tp36
Rp37
tp38
aa.