(lp0
S'w_7292'
p1
a(lp2
(cnumpy.core.multiarray
scalar
p3
(cnumpy
dtype
p4
(S'f8'
p5
I0
I1
tp6
Rp7
(I3
S'<'
p8
NNNI-1
I-1
I0
tp9
bS'\xe5\x9a\x01\x82"i\x98@'
p10
tp11
Rp12
g3
(g7
S'\xe2Yp\x8coj\xa2@'
p13
tp14
Rp15
tp16
a(g3
(g7
S'\xfe\xba)4\x81\x00\xa8@'
p17
tp18
Rp19
g3
(g7
S' (\xb2^\xf6\xef\x87@'
p20
tp21
Rp22
tp23
aa(lp24
(g3
(g7
S'\xben\nM`\xcc\x86@'
p25
tp26
Rp27
g3
(g7
S'\\lG\x99\x7f\x07~@'
p28
tp29
Rp30
tp31
a(g3
(g7
S'Nd\xbd\xec\xe7\xc5\x87@'
p32
tp33
Rp34
g3
(g7
S"\xaaR'q\xcd|\x8f@"
p35
tp36
Rp37
tp38
aa.