(lp0
S'w_7269'
p1
a(lp2
(cnumpy.core.multiarray
scalar
p3
(cnumpy
dtype
p4
(S'f8'
p5
I0
I1
tp6
Rp7
(I3
S'<'
p8
NNNI-1
I-1
I0
tp9
bS'\xcb\xfc\xfb\xba)\xcd\x8c@'
p10
tp11
Rp12
g3
(g7
S'\x7f\xdd\x14\x9a\xc0v\x8f@'
p13
tp14
Rp15
tp16
a(g3
(g7
S'\x16\xdbQ\xe6_\xbf\x98@'
p17
tp18
Rp19
g3
(g7
S'H\x95:\x89k6w@'
p20
tp21
Rp22
tp23
aa(lp24
(g3
(g7
S'\xc49H\xda\x10\xe5g@'
p25
tp26
Rp27
g3
(g7
S'\xc0\xaf\x9bB\x13\xb6x@'
p28
tp29
Rp30
tp31
a(g3
(g7
S'R\xea$\xae\x190{@'
p32
tp33
Rp34
g3
(g7
S'5\xc2rO#dp@'
p35
tp36
Rp37
tp38
aa.