(lp0
S'w_7428'
p1
a(lp2
(cnumpy.core.multiarray
scalar
p3
(cnumpy
dtype
p4
(S'f8'
p5
I0
I1
tp6
Rp7
(I3
S'<'
p8
NNNI-1
I-1
I0
tp9
bS'n\x91\xebL\xc0&\x8d@'
p10
tp11
Rp12
g3
(g7
S';\x90h\x85MS\x98@'
p13
tp14
Rp15
tp16
a(g3
(g7
S'n\x91\xebL\xc0~\xa1@'
p17
tp18
Rp19
g3
(g7
S'\xc8i\x08\x95t%r@'
p20
tp21
Rp22
tp23
aa(lp24
(g3
(g7
S'`m\x91\xebL\x80{@'
p25
tp26
Rp27
g3
(g7
S'>\x96\xf7j\x8b>\x80@'
p28
tp29
Rp30
tp31
a(g3
(g7
S'PC\xa8\xa4\x1b\xe5\x88@'
p32
tp33
Rp34
g3
(g7
S"\xfev\xa9'\xe3\xc1\x88@"
p35
tp36
Rp37
tp38
aa.