(lp0
S'w_7452'
p1
a(lp2
(cnumpy.core.multiarray
scalar
p3
(cnumpy
dtype
p4
(S'f8'
p5
I0
I1
tp6
Rp7
(I3
S'<'
p8
NNNI-1
I-1
I0
tp9
bS'(q\xcd\x00A\x8f\x99@'
p10
tp11
Rp12
g3
(g7
S"'0<\x0b\x8e\xef\x91@"
p13
tp14
Rp15
tp16
a(g3
(g7
S'3\xff\xben\nL\xa2@'
p17
tp18
Rp19
g3
(g7
S'\xa0\x83\xa4\rQ\x9d~@'
p20
tp21
Rp22
tp23
aa(lp24
(g3
(g7
S'-\xba\xe8\xa2\x8b\x12}@'
p25
tp26
Rp27
g3
(g7
S'\xb2\x1de\xfe}5t@'
p28
tp29
Rp30
tp31
a(g3
(g7
S'.}\x9c\x83\xa4%c@'
p32
tp33
Rp34
g3
(g7
S'DT\xa9\x93\xb8zx@'
p35
tp36
Rp37
tp38
aa.