(lp0
S'w_7494'
p1
a(lp2
(cnumpy.core.multiarray
scalar
p3
(cnumpy
dtype
p4
(S'f8'
p5
I0
I1
tp6
Rp7
(I3
S'<'
p8
NNNI-1
I-1
I0
tp9
bS"\xd4\x86\xa8R'm\x8d@"
p10
tp11
Rp12
g3
(g7
S'\x9cB\x13\x18\x9e\x03\x97@'
p13
tp14
Rp15
tp16
a(g3
(g7
S'xSh\x02\xc3\xb1\x9c@'
p17
tp18
Rp19
g3
(g7
S'pK\xdeU+\xb2\x83@'
p20
tp21
Rp22
tp23
aa(lp24
(g3
(g7
S'\xe0\x10U\xea$>l@'
p25
tp26
Rp27
g3
(g7
S'T\xa9\x93\xb8f\x08r@'
p28
tp29
Rp30
tp31
a(g3
(g7
S'!\xa6\x8fs\x90\xd0\x82@'
p32
tp33
Rp34
g3
(g7
S'\x8coK\xdeU\x7fw@'
p35
tp36
Rp37
tp38
aa.