(lp0
S'w_7571'
p1
a(lp2
(cnumpy.core.multiarray
scalar
p3
(cnumpy
dtype
p4
(S'f8'
p5
I0
I1
tp6
Rp7
(I3
S'<'
p8
NNNI-1
I-1
I0
tp9
bS'm\x8coK\xde\xef\x89@'
p10
tp11
Rp12
g3
(g7
S'HX\xeei\x04?\x92@'
p13
tp14
Rp15
tp16
a(g3
(g7
S'\x88.\xba\xe8"\x89\x99@'
p17
tp18
Rp19
g3
(g7
S'p\xc5v\x94\xf9\xb3}@'
p20
tp21
Rp22
tp23
aa(lp24
(g3
(g7
S'!\xebe?\x0f\x13v@'
p25
tp26
Rp27
g3
(g7
S';\x0b\x8e\xf1my}@'
p28
tp29
Rp30
tp31
a(g3
(g7
S'}\xdd\x14\x9a\xc0(v@'
p32
tp33
Rp34
g3
(g7
S'\x8f\xb4!\xaa\xd4\xe1r@'
p35
tp36
Rp37
tp38
aa.