(lp0
S'w_7630'
p1
a(lp2
(cnumpy.core.multiarray
scalar
p3
(cnumpy
dtype
p4
(S'f8'
p5
I0
I1
tp6
Rp7
(I3
S'<'
p8
NNNI-1
I-1
I0
tp9
bS't\x8coK\xdeA\x8c@'
p10
tp11
Rp12
g3
(g7
S'.yW\xad\xd8\xe9\x99@'
p13
tp14
Rp15
tp16
a(g3
(g7
S'\xf8q\x0e\x926\xae\x9b@'
p17
tp18
Rp19
g3
(g7
S'\xc4\xf4q\x0e\x92\xbe\x82@'
p20
tp21
Rp22
tp23
aa(lp24
(g3
(g7
S'jG\x99\x7f_\x1dr@'
p25
tp26
Rp27
g3
(g7
S'\xb8\xe4]\xb5bww@'
p28
tp29
Rp30
tp31
a(g3
(g7
S'*u\x12\xd7\x0cxx@'
p32
tp33
Rp34
g3
(g7
S':H\xda\x10U\x08\x84@'
p35
tp36
Rp37
tp38
aa.