(lp0
S'w_7716'
p1
a(lp2
(cnumpy.core.multiarray
scalar
p3
(cnumpy
dtype
p4
(S'f8'
p5
I0
I1
tp6
Rp7
(I3
S'<'
p8
NNNI-1
I-1
I0
tp9
bS'TUUU\x15{\x91@'
p10
tp11
Rp12
g3
(g7
S'VUUU\xd5o\x96@'
p13
tp14
Rp15
tp16
a(g3
(g7
S'TUUU\x15\x1a\x9d@'
p17
tp18
Rp19
g3
(g7
S'VUUUU\xdf\x8a@'
p20
tp21
Rp22
tp23
aa(lp24
(g3
(g7
S'\xff\xff\xff\xff\xffs\x80@'
p25
tp26
Rp27
g3
(g7
S'\x00\x00\x00\x00\x00(z@'
p28
tp29
Rp30
tp31
a(g3
(g7
S'\xfe\xff\xff\xff\xffgt@'
p32
tp33
Rp34
g3
(g7
S'\x00\x00\x00\x00\x000g@'
p35
tp36
Rp37
tp38
aa.