(lp0
S'w_7831'
p1
a(lp2
(cnumpy.core.multiarray
scalar
p3
(cnumpy
dtype
p4
(S'f8'
p5
I0
I1
tp6
Rp7
(I3
S'<'
p8
NNNI-1
I-1
I0
tp9
bS"d\xfcv\xa9'\xa1\x99@"
p10
tp11
Rp12
g3
(g7
S'\xb9K=\x19?\xf0\x94@'
p13
tp14
Rp15
tp16
a(g3
(g7
S'Yas \xd1\t\xa3@'
p17
tp18
Rp19
g3
(g7
S'\x90b\xf6\xe7\xc3v\x80@'
p20
tp21
Rp22
tp23
aa(lp24
(g3
(g7
S'\xfc\xedRO\xc67~@'
p25
tp26
Rp27
g3
(g7
S'\xaa\xa8%^kxv@'
p28
tp29
Rp30
tp31
a(g3
(g7
S'z,\xef\xd5\x16\x11t@'
p32
tp33
Rp34
g3
(g7
S'p\x99\xff~\xbd\xd5}@'
p35
tp36
Rp37
tp38
aa.