(lp0
S'w_7966'
p1
a(lp2
(cnumpy.core.multiarray
scalar
p3
(cnumpy
dtype
p4
(S'f8'
p5
I0
I1
tp6
Rp7
(I3
S'<'
p8
NNNI-1
I-1
I0
tp9
bS'.8\xc6\xb7%\r\x93@'
p10
tp11
Rp12
g3
(g7
S"\x87\xa8R'qK\x96@"
p13
tp14
Rp15
tp16
a(g3
(g7
S'\x94w\xd5\x8a\xed\xa6\x9e@'
p17
tp18
Rp19
g3
(g7
S'\x80\xa0\xc8z\xd9\x8b\x88@'
p20
tp21
Rp22
tp23
aa(lp24
(g3
(g7
S'\x8f\xb0\xdc\xd3\x08\x05x@'
p25
tp26
Rp27
g3
(g7
S'\xc4\xf0,8\xc6\xcbm@'
p28
tp29
Rp30
tp31
a(g3
(g7
S'\x01\xbfn\nMj|@'
p32
tp33
Rp34
g3
(g7
S'_\xf6\xf30}jy@'
p35
tp36
Rp37
tp38
aa.