(lp0
S'w_790'
p1
a(lp2
(cnumpy.core.multiarray
scalar
p3
(cnumpy
dtype
p4
(S'f8'
p5
I0
I1
tp6
Rp7
(I3
S'<'
p8
NNNI-1
I-1
I0
tp9
bS'6\xc2rO#*\x93@'
p10
tp11
Rp12
g3
(g7
S'lG\x99\x7f_5\x99@'
p13
tp14
Rp15
tp16
a(g3
(g7
S'HX\xeei\x84\xe3\x9e@'
p17
tp18
Rp19
g3
(g7
S'\xbe\xabVlG\x95\x87@'
p20
tp21
Rp22
tp23
aa(lp24
(g3
(g7
S'\xdc\xd3\x08\xcb=Y~@'
p25
tp26
Rp27
g3
(g7
S'\xb4\xe0\x18\xdf\x961\x80@'
p28
tp29
Rp30
tp31
a(g3
(g7
S'x\xd5\x8a\xed(\xc7e@'
p32
tp33
Rp34
g3
(g7
S'\x06\xc7\xf8\xb6\xe4!u@'
p35
tp36
Rp37
tp38
aa.