(lp0
S'w_7927'
p1
a(lp2
(cnumpy.core.multiarray
scalar
p3
(cnumpy
dtype
p4
(S'f8'
p5
I0
I1
tp6
Rp7
(I3
S'<'
p8
NNNI-1
I-1
I0
tp9
bS'\x1b\xc7q\x1c\xc7o\x98@'
p10
tp11
Rp12
g3
(g7
S'VUUUUS\x97@'
p13
tp14
Rp15
tp16
a(g3
(g7
S'\x00\x00\x00\x00\x00\x7f\xa0@'
p17
tp18
Rp19
g3
(g7
S'r\x1c\xc7q\x1c\xc3\x8c@'
p20
tp21
Rp22
tp23
aa(lp24
(g3
(g7
S'XUUUU\xdbk@'
p25
tp26
Rp27
g3
(g7
S'VUUUU>w@'
p28
tp29
Rp30
tp31
a(g3
(g7
S'\x02\x00\x00\x00\x00\x01u@'
p32
tp33
Rp34
g3
(g7
S':\x8e\xe38\x8e\xa5g@'
p35
tp36
Rp37
tp38
aa.