(lp0
S'w_7903'
p1
a(lp2
(cnumpy.core.multiarray
scalar
p3
(cnumpy
dtype
p4
(S'f8'
p5
I0
I1
tp6
Rp7
(I3
S'<'
p8
NNNI-1
I-1
I0
tp9
bS'\xb1Z\xb1\x1de|\x92@'
p10
tp11
Rp12
g3
(g7
S' \xe7 iCS\xa5@'
p13
tp14
Rp15
tp16
a(g3
(g7
S'N\xdeU+\xb6\x82\xa4@'
p17
tp18
Rp19
g3
(g7
S'r\xcd\x00A\x91\xf3\x92@'
p20
tp21
Rp22
tp23
aa(lp24
(g3
(g7
S'\\p\x8coK\xb6y@'
p25
tp26
Rp27
g3
(g7
S'\x8e2\xff\xben\xd8\x8a@'
p28
tp29
Rp30
tp31
a(g3
(g7
S'b7\x85&0\x9e\x8f@'
p32
tp33
Rp34
g3
(g7
S'\xb0\xdc\xd3\x08\xcb\x99\x83@'
p35
tp36
Rp37
tp38
aa.