(lp0
S'w_7910'
p1
a(lp2
(cnumpy.core.multiarray
scalar
p3
(cnumpy
dtype
p4
(S'f8'
p5
I0
I1
tp6
Rp7
(I3
S'<'
p8
NNNI-1
I-1
I0
tp9
bS'\xc6q\x1c\xc7q\x1a\x90@'
p10
tp11
Rp12
g3
(g7
S'9\x8e\xe38\x8ea\x90@'
p13
tp14
Rp15
tp16
a(g3
(g7
S'7\x8e\xe38\x8ea\x9b@'
p17
tp18
Rp19
g3
(g7
S'<\x8e\xe38\x8e\xdbx@'
p20
tp21
Rp22
tp23
aa(lp24
(g3
(g7
S'VUUU\x95\x17q@'
p25
tp26
Rp27
g3
(g7
S'XUUU\xd5\xebj@'
p28
tp29
Rp30
tp31
a(g3
(g7
S'XUUU\x95\xf5|@'
p32
tp33
Rp34
g3
(g7
S'\xab\xaa\xaa\xaa\xaa\xe0t@'
p35
tp36
Rp37
tp38
aa.