(lp0
S'w_8050'
p1
a(lp2
(cnumpy.core.multiarray
scalar
p3
(cnumpy
dtype
p4
(S'f8'
p5
I0
I1
tp6
Rp7
(I3
S'<'
p8
NNNI-1
I-1
I0
tp9
bS'\x00\x00\x00\x00\x00+\x90@'
p10
tp11
Rp12
g3
(g7
S't\x1c\xc7q\xdc,\x8b@'
p13
tp14
Rp15
tp16
a(g3
(g7
S'6\x8e\xe38N\xc6\x9e@'
p17
tp18
Rp19
g3
(g7
S'VUUUEk\x97@'
p20
tp21
Rp22
tp23
aa(lp24
(g3
(g7
S'\xc8q\x1c\xc7\xf1~s@'
p25
tp26
Rp27
g3
(g7
S'9\x8e\xe38\x8e\xb7t@'
p28
tp29
Rp30
tp31
a(g3
(g7
S'\x8f\xe38\x8e\x03\xdc\x82@'
p32
tp33
Rp34
g3
(g7
S'VUUUUYp@'
p35
tp36
Rp37
tp38
aa.