(lp0
S'w_8032'
p1
a(lp2
(cnumpy.core.multiarray
scalar
p3
(cnumpy
dtype
p4
(S'f8'
p5
I0
I1
tp6
Rp7
(I3
S'<'
p8
NNNI-1
I-1
I0
tp9
bS'9\x8e\xe38\x8e\xe1\x97@'
p10
tp11
Rp12
g3
(g7
S'\xab\xaa\xaa\xaa\xaa(\x93@'
p13
tp14
Rp15
tp16
a(g3
(g7
S'TUUUU\x14\xa1@'
p17
tp18
Rp19
g3
(g7
S'r\x1c\xc7q\x1c\xc3\x82@'
p20
tp21
Rp22
tp23
aa(lp24
(g3
(g7
S'SUUU\xd5\xa9{@'
p25
tp26
Rp27
g3
(g7
S'9\x8e\xe38\x8e\x94r@'
p28
tp29
Rp30
tp31
a(g3
(g7
S'\x18\xc7q\x1c\xc7id@'
p32
tp33
Rp34
g3
(g7
S'\xc7q\x1c\xc7q&x@'
p35
tp36
Rp37
tp38
aa.