(lp0
S'w_8163'
p1
a(lp2
(cnumpy.core.multiarray
scalar
p3
(cnumpy
dtype
p4
(S'f8'
p5
I0
I1
tp6
Rp7
(I3
S'<'
p8
NNNI-1
I-1
I0
tp9
bS'\x00\x00\x00\x00\xe0\xe2\x92@'
p10
tp11
Rp12
g3
(g7
S'XUUUU\x07~@'
p13
tp14
Rp15
tp16
a(g3
(g7
S'\xac\xaa\xaa\xaa\x8aC\x9f@'
p17
tp18
Rp19
g3
(g7
S'VUUU\x15t\x91@'
p20
tp21
Rp22
tp23
aa(lp24
(g3
(g7
S'UUUU\xd5Mx@'
p25
tp26
Rp27
g3
(g7
S'\xc8q\x1c\xc7qJc@'
p28
tp29
Rp30
tp31
a(g3
(g7
S'\x8d\xe38\x8e\xa3\x80t@'
p32
tp33
Rp34
g3
(g7
S'\x8f\xe38\x8e\xa3\x1fw@'
p35
tp36
Rp37
tp38
aa.