(lp0
S'w_8387'
p1
a(lp2
(cnumpy.core.multiarray
scalar
p3
(cnumpy
dtype
p4
(S'f8'
p5
I0
I1
tp6
Rp7
(I3
S'<'
p8
NNNI-1
I-1
I0
tp9
bS'\\\xf6\xf30}\x16y@'
p10
tp11
Rp12
g3
(g7
S'^7\x85&\xb0\xa8\x91@'
p13
tp14
Rp15
tp16
a(g3
(g7
S'<L\x1f\xe7\xa0F\x91@'
p17
tp18
Rp19
g3
(g7
S'\xacZ\xb1\x1de\x06v@'
p20
tp21
Rp22
tp23
aa(lp24
(g3
(g7
S'<Pd\xbd\xecOh@'
p25
tp26
Rp27
g3
(g7
S'`\xb9\xa7\x11\x96\xcbo@'
p28
tp29
Rp30
tp31
a(g3
(g7
S'b|[\xf2\xae\x08\x81@'
p32
tp33
Rp34
g3
(g7
S'\x9e\x87\xe9\xe3\x1cTw@'
p35
tp36
Rp37
tp38
aa.