(lp0
S'w_8349'
p1
a(lp2
(cnumpy.core.multiarray
scalar
p3
(cnumpy
dtype
p4
(S'f8'
p5
I0
I1
tp6
Rp7
(I3
S'<'
p8
NNNI-1
I-1
I0
tp9
bS'Rh\x02\xc3\xb3\xdb\x92@'
p10
tp11
Rp12
g3
(g7
S'\xd4I\\3@a\x9c@'
p13
tp14
Rp15
tp16
a(g3
(g7
S'&0<\x0b\x8el\x9b@'
p17
tp18
Rp19
g3
(g7
S'\xbcj\xc5v\x94\xdf\x91@'
p20
tp21
Rp22
tp23
aa(lp24
(g3
(g7
S'\xe0\x1c$m\x88\x86h@'
p25
tp26
Rp27
g3
(g7
S"l\x06\x08\x8a\xac'l@"
p28
tp29
Rp30
tp31
a(g3
(g7
S'v\x16\x1c\xe3\xdb>u@'
p32
tp33
Rp34
g3
(g7
S'\xc7\xb7%\xef\xaa\x05s@'
p35
tp36
Rp37
tp38
aa.