(lp0
S'w_8414'
p1
a(lp2
(cnumpy.core.multiarray
scalar
p3
(cnumpy
dtype
p4
(S'f8'
p5
I0
I1
tp6
Rp7
(I3
S'<'
p8
NNNI-1
I-1
I0
tp9
bS'\xcd=\x8d\xb0\xdc-\x81@'
p10
tp11
Rp12
g3
(g7
S'\xc0rO#,"\x95@'
p13
tp14
Rp15
tp16
a(g3
(g7
S'l\x84\xe5\x9eF\x19\x93@'
p17
tp18
Rp19
g3
(g7
S' ,\xf74\xc2\x90\x82@'
p20
tp21
Rp22
tp23
aa(lp24
(g3
(g7
S"R'q\xcd\x00\rs@"
p25
tp26
Rp27
g3
(g7
S'6\x81\xe1Yp@q@'
p28
tp29
Rp30
tp31
a(g3
(g7
S'\xeei\x84\xe5\x9e\xfas@'
p32
tp33
Rp34
g3
(g7
S'\xf2m\xc9\xbbj\xe5~@'
p35
tp36
Rp37
tp38
aa.