(lp0
S'w_8421'
p1
a(lp2
(cnumpy.core.multiarray
scalar
p3
(cnumpy
dtype
p4
(S'f8'
p5
I0
I1
tp6
Rp7
(I3
S'<'
p8
NNNI-1
I-1
I0
tp9
bS'2\xbe-yW\xab\x94@'
p10
tp11
Rp12
g3
(g7
S'\xcd\xbf\xaf\x9bB\x11\x94@'
p13
tp14
Rp15
tp16
a(g3
(g7
S'\xe1\xd7M\xa1\t\x0b\xa1@'
p17
tp18
Rp19
g3
(g7
S'Xh\x02\xc3\xb3\xd8x@'
p20
tp21
Rp22
tp23
aa(lp24
(g3
(g7
S'\xc21\xbe-y9|@'
p25
tp26
Rp27
g3
(g7
S'\nM`x\x16b\x83@'
p28
tp29
Rp30
tp31
a(g3
(g7
S'\xb2^\xf6\xf30\xcbv@'
p32
tp33
Rp34
g3
(g7
S'\xa0FX\xeei\x1ax@'
p35
tp36
Rp37
tp38
aa.