(lp0
S'w_8628'
p1
a(lp2
(cnumpy.core.multiarray
scalar
p3
(cnumpy
dtype
p4
(S'f8'
p5
I0
I1
tp6
Rp7
(I3
S'<'
p8
NNNI-1
I-1
I0
tp9
bS'\xffy\x98>\xce\x7f\x9f@'
p10
tp11
Rp12
g3
(g7
S'M`x\x16\x1cb\xa6@'
p13
tp14
Rp15
tp16
a(g3
(g7
S'p\xc9\xbbj\xc5\xb5\xac@'
p17
tp18
Rp19
g3
(g7
S'\x8c.\xba\xe8\xa2\xc9\x91@'
p20
tp21
Rp22
tp23
aa(lp24
(g3
(g7
S'N#,\xf74(\x87@'
p25
tp26
Rp27
g3
(g7
S'\xf64\xc2rO\xb6\x80@'
p28
tp29
Rp30
tp31
a(g3
(g7
S'rO#,\xf7b\x8b@'
p32
tp33
Rp34
g3
(g7
S'rO#,\xf7\x83\x8f@'
p35
tp36
Rp37
tp38
aa.