(lp0
S'w_875'
p1
a(lp2
(cnumpy.core.multiarray
scalar
p3
(cnumpy
dtype
p4
(S'f8'
p5
I0
I1
tp6
Rp7
(I3
S'<'
p8
NNNI-1
I-1
I0
tp9
bS':\x8e\xe38\xee4\x84@'
p10
tp11
Rp12
g3
(g7
S'\xaa\xaa\xaa\xaaj\xa0\x8b@'
p13
tp14
Rp15
tp16
a(g3
(g7
S'\x1d\xc7q\x1c\x97\x1a\x95@'
p17
tp18
Rp19
g3
(g7
S'PUUUU\x87o@'
p20
tp21
Rp22
tp23
aa(lp24
(g3
(g7
S't\x1c\xc7q\x1c\x8fi@'
p25
tp26
Rp27
g3
(g7
S'XUUUU\xbdl@'
p28
tp29
Rp30
tp31
a(g3
(g7
S'\xe68\x8e\xe38\xcc{@'
p32
tp33
Rp34
g3
(g7
S'\x8f\xe38\x8e\xe32t@'
p35
tp36
Rp37
tp38
aa.