(lp0
S'w_8889'
p1
a(lp2
(cnumpy.core.multiarray
scalar
p3
(cnumpy
dtype
p4
(S'f8'
p5
I0
I1
tp6
Rp7
(I3
S'<'
p8
NNNI-1
I-1
I0
tp9
bS'\x00\x00\x00\x00@f\x91@'
p10
tp11
Rp12
g3
(g7
S'r\x1c\xc7qL\x95\x97@'
p13
tp14
Rp15
tp16
a(g3
(g7
S'VUUU\x05+\x9d@'
p17
tp18
Rp19
g3
(g7
S':\x8e\xe38\xee\x87\x8a@'
p20
tp21
Rp22
tp23
aa(lp24
(g3
(g7
S'\xe18\x8e\xe3\xb89z@'
p25
tp26
Rp27
g3
(g7
S'r\x1c\xc7q\x9c\x16}@'
p28
tp29
Rp30
tp31
a(g3
(g7
S'\xc5q\x1c\xc7q4u@'
p32
tp33
Rp34
g3
(g7
S'\xc8q\x1c\xc7q\x0bj@'
p35
tp36
Rp37
tp38
aa.