(lp0
S'w_8865'
p1
a(lp2
(cnumpy.core.multiarray
scalar
p3
(cnumpy
dtype
p4
(S'f8'
p5
I0
I1
tp6
Rp7
(I3
S'<'
p8
NNNI-1
I-1
I0
tp9
bS'~\x1e\xa6\x8fs\x8c\x92@'
p10
tp11
Rp12
g3
(g7
S'\x04\x04E\xd6\xcb\x1c\x90@'
p13
tp14
Rp15
tp16
a(g3
(g7
S'\x8c\xed(\xf3\xef\xc7\x9d@'
p17
tp18
Rp19
g3
(g7
S'\xe8\x9eFX\xeea~@'
p20
tp21
Rp22
tp23
aa(lp24
(g3
(g7
S'o\nM`x$y@'
p25
tp26
Rp27
g3
(g7
S'\xd6\x8a\xed(\xf3\xebf@'
p28
tp29
Rp30
tp31
a(g3
(g7
S'WlG\x99\x7f\x11r@'
p32
tp33
Rp34
g3
(g7
S',\xf74\xc2r\xdfv@'
p35
tp36
Rp37
tp38
aa.