(lp0
S'w_8895'
p1
a(lp2
(cnumpy.core.multiarray
scalar
p3
(cnumpy
dtype
p4
(S'f8'
p5
I0
I1
tp6
Rp7
(I3
S'<'
p8
NNNI-1
I-1
I0
tp9
bS'2\xbe-yW\xab\x94@'
p10
tp11
Rp12
g3
(g7
S'\xf9\xb6\xe4]\xb5`\x93@'
p13
tp14
Rp15
tp16
a(g3
(g7
S'\xf84\xc2rO"\xa0@'
p17
tp18
Rp19
g3
(g7
S'v\x12\xd7\x0c\x10\x10\x81@'
p20
tp21
Rp22
tp23
aa(lp24
(g3
(g7
S'.\xb6\xa3\xcc\xbf\xeb~@'
p25
tp26
Rp27
g3
(g7
S'K\\3@P\xc4r@'
p28
tp29
Rp30
tp31
a(g3
(g7
S'\xc8v\x94\xf9\xf7en@'
p32
tp33
Rp34
g3
(g7
S"\xaaR'q\xcd\x98r@"
p35
tp36
Rp37
tp38
aa.