(lp0
S'w_8927'
p1
a(lp2
(cnumpy.core.multiarray
scalar
p3
(cnumpy
dtype
p4
(S'f8'
p5
I0
I1
tp6
Rp7
(I3
S'<'
p8
NNNI-1
I-1
I0
tp9
bS'R\xa5N\xe2\x1aG\x93@'
p10
tp11
Rp12
g3
(g7
S'(\xb2^\xf6s8\x98@'
p13
tp14
Rp15
tp16
a(g3
(g7
S'.\xf74\xc2\xf20\x9f@'
p17
tp18
Rp19
g3
(g7
S'"(\xb2^\xf6\xab\x86@'
p20
tp21
Rp22
tp23
aa(lp24
(g3
(g7
S'$,\xf74\xc25\x81@'
p25
tp26
Rp27
g3
(g7
S'HX\xeei\x84\xc7r@'
p28
tp29
Rp30
tp31
a(g3
(g7
S'HX\xeei\x84\xddo@'
p32
tp33
Rp34
g3
(g7
S'\xd4\x08\xcb=\x8dXy@'
p35
tp36
Rp37
tp38
aa.