(lp0
S'w_8947'
p1
a(lp2
(cnumpy.core.multiarray
scalar
p3
(cnumpy
dtype
p4
(S'f8'
p5
I0
I1
tp6
Rp7
(I3
S'<'
p8
NNNI-1
I-1
I0
tp9
bS'4@Pd\xbd\xea\x93@'
p10
tp11
Rp12
g3
(g7
S'F\x17]t\xd1C\x97@'
p13
tp14
Rp15
tp16
a(g3
(g7
S'P\xe2\x9a\x01\x82 \x9b@'
p17
tp18
Rp19
g3
(g7
S'\n\x8a\xac\x97\xfd8\x8c@'
p20
tp21
Rp22
tp23
aa(lp24
(g3
(g7
S'(,\xf74\xc2\xeed@'
p25
tp26
Rp27
g3
(g7
S'\xf3m\xc9\xbbjes@'
p28
tp29
Rp30
tp31
a(g3
(g7
S'\xdc\x8e2\xff\xbe\x10t@'
p32
tp33
Rp34
g3
(g7
S'\x9a\xbc\xabVlsc@'
p35
tp36
Rp37
tp38
aa.