(lp0
S'w_8939'
p1
a(lp2
(cnumpy.core.multiarray
scalar
p3
(cnumpy
dtype
p4
(S'f8'
p5
I0
I1
tp6
Rp7
(I3
S'<'
p8
NNNI-1
I-1
I0
tp9
bS'8\x8e\xe38^Y\x93@'
p10
tp11
Rp12
g3
(g7
S'r\x1c\xc7q\\t\x8f@'
p13
tp14
Rp15
tp16
a(g3
(g7
S'\xaa\xaa\xaa\xaa*\xb2\x9f@'
p17
tp18
Rp19
g3
(g7
S'9\x8e\xe38.\xff\x97@'
p20
tp21
Rp22
tp23
aa(lp24
(g3
(g7
S'\xac\xaa\xaa\xaa*\x11{@'
p25
tp26
Rp27
g3
(g7
S'\x1d\xc7q\x1c\x87iv@'
p28
tp29
Rp30
tp31
a(g3
(g7
S'\x8e\xe38\x8ec\xc5x@'
p32
tp33
Rp34
g3
(g7
S'<\x8e\xe38\x8e2[@'
p35
tp36
Rp37
tp38
aa.