(lp0
S'w_8958'
p1
a(lp2
(cnumpy.core.multiarray
scalar
p3
(cnumpy
dtype
p4
(S'f8'
p5
I0
I1
tp6
Rp7
(I3
S'<'
p8
NNNI-1
I-1
I0
tp9
bS'7\x85&0\xbc=\x92@'
p10
tp11
Rp12
g3
(g7
S'\x00\xbfn\n\xcd\xe4\x97@'
p13
tp14
Rp15
tp16
a(g3
(g7
S'g?\x0f\xd3Gw\x9e@'
p17
tp18
Rp19
g3
(g7
S't\xcd\x00A\x91\x0e\x87@'
p20
tp21
Rp22
tp23
aa(lp24
(g3
(g7
S'\xa4\x11\x96{\x1a\xf1b@'
p25
tp26
Rp27
g3
(g7
S'IX\xeei\x84mx@'
p28
tp29
Rp30
tp31
a(g3
(g7
S'\x94{\x1aa\xb9C\x82@'
p32
tp33
Rp34
g3
(g7
S"0\xf74\xc2r'q@"
p35
tp36
Rp37
tp38
aa.