(lp0
S'w_8953'
p1
a(lp2
(cnumpy.core.multiarray
scalar
p3
(cnumpy
dtype
p4
(S'f8'
p5
I0
I1
tp6
Rp7
(I3
S'<'
p8
NNNI-1
I-1
I0
tp9
bS'\xdc\x10U\xea$\xac\x95@'
p10
tp11
Rp12
g3
(g7
S'"\xaa\xd4I\\1\x94@'
p13
tp14
Rp15
tp16
a(g3
(g7
S'\xf6\xb2\x9f\x87\xe9\xe2\xa0@'
p17
tp18
Rp19
g3
(g7
S'pK\xdeU+\xb2\x83@'
p20
tp21
Rp22
tp23
aa(lp24
(g3
(g7
S'\xec(\xf3\xef\xeb\x12~@'
p25
tp26
Rp27
g3
(g7
S'\xf3\xaeZ\xb1\x1d\tp@'
p28
tp29
Rp30
tp31
a(g3
(g7
S'\x1ce\xfe}\xddlj@'
p32
tp33
Rp34
g3
(g7
S".8\xc6\xb7%'m@"
p35
tp36
Rp37
tp38
aa.