(lp0
S'w_9014'
p1
a(lp2
(cnumpy.core.multiarray
scalar
p3
(cnumpy
dtype
p4
(S'f8'
p5
I0
I1
tp6
Rp7
(I3
S'<'
p8
NNNI-1
I-1
I0
tp9
bS'\x8c\xac\x97\xfd<H\x87@'
p10
tp11
Rp12
g3
(g7
S'\x99>\xceA\xd2\x84\x98@'
p13
tp14
Rp15
tp16
a(g3
(g7
S'\xfe<L\x1f\xe7\x1e\x99@'
p17
tp18
Rp19
g3
(g7
S'jCT\xa9\x93\xb4\x86@'
p20
tp21
Rp22
tp23
aa(lp24
(g3
(g7
S'x\x98>\xceA\xa4u@'
p25
tp26
Rp27
g3
(g7
S'p\nM`x\xf2n@'
p28
tp29
Rp30
tp31
a(g3
(g7
S'\xcc\x82c|[\x9aw@'
p32
tp33
Rp34
g3
(g7
S'\xaa\xd4I\\3\x14\x81@'
p35
tp36
Rp37
tp38
aa.