(lp0
S'w_9194'
p1
a(lp2
(cnumpy.core.multiarray
scalar
p3
(cnumpy
dtype
p4
(S'f8'
p5
I0
I1
tp6
Rp7
(I3
S'<'
p8
NNNI-1
I-1
I0
tp9
bS'bx\x16\x1c\xe3\xd9\x92@'
p10
tp11
Rp12
g3
(g7
S'"\xaa\xd4I\\1\x94@'
p13
tp14
Rp15
tp16
a(g3
(g7
S'\xa2\t\x0c\xcf\x82b\xa0@'
p17
tp18
Rp19
g3
(g7
S'\xa8\rQ\xa5N\xdaz@'
p20
tp21
Rp22
tp23
aa(lp24
(g3
(g7
S'\xac\x1de\xfe}\xc5~@'
p25
tp26
Rp27
g3
(g7
S'Xh\x02\xc3\xb3xo@'
p28
tp29
Rp30
tp31
a(g3
(g7
S'\x18e\xfe}\xdd\x82\x7f@'
p32
tp33
Rp34
g3
(g7
S'\xb2\x1de\xfe}\xe5}@'
p35
tp36
Rp37
tp38
aa.