(lp0
S'w_9254'
p1
a(lp2
(cnumpy.core.multiarray
scalar
p3
(cnumpy
dtype
p4
(S'f8'
p5
I0
I1
tp6
Rp7
(I3
S'<'
p8
NNNI-1
I-1
I0
tp9
bS'",\xf74\xc2\xde\x8f@'
p10
tp11
Rp12
g3
(g7
S"'0<\x0b\x8eX\x90@"
p13
tp14
Rp15
tp16
a(g3
(g7
S'-\xba\xe8\xa2\x0b,\x9a@'
p17
tp18
Rp19
g3
(g7
S'\\+\xb6\xa3\xcc]t@'
p20
tp21
Rp22
tp23
aa(lp24
(g3
(g7
S'\xe8\xe3\x1c$m\xb4u@'
p25
tp26
Rp27
g3
(g7
S'\x03\x04E\xd6\xcbRv@'
p28
tp29
Rp30
tp31
a(g3
(g7
S'\xcc\x04\x86g\xc1um@'
p32
tp33
Rp34
g3
(g7
S'\xe6\xdf\xd7M\xa1\xe9w@'
p35
tp36
Rp37
tp38
aa.