(lp0
S'w_9257'
p1
a(lp2
(cnumpy.core.multiarray
scalar
p3
(cnumpy
dtype
p4
(S'f8'
p5
I0
I1
tp6
Rp7
(I3
S'<'
p8
NNNI-1
I-1
I0
tp9
bS'k\x10\xa9\xa6\xa0E\x98@'
p10
tp11
Rp12
g3
(g7
S'%Zas \x18\x95@'
p13
tp14
Rp15
tp16
a(g3
(g7
S'TS\xd0\x08\x16\xfd\xa2@'
p17
tp18
Rp19
g3
(g7
S'\xb8\xbe\xdc\xa7#\x1f\x80@'
p20
tp21
Rp22
tp23
aa(lp24
(g3
(g7
S'\xb4;\x15\xb5\xc4;~@'
p25
tp26
Rp27
g3
(g7
S'1x,\xef\xd5\xf8|@'
p28
tp29
Rp30
tp31
a(g3
(g7
S'\xb29\x90h\x85\xf1t@'
p32
tp33
Rp34
g3
(g7
S'_\xecNE-\x94\x80@'
p35
tp36
Rp37
tp38
aa.