(lp0
S'w_9204'
p1
a(lp2
(cnumpy.core.multiarray
scalar
p3
(cnumpy
dtype
p4
(S'f8'
p5
I0
I1
tp6
Rp7
(I3
S'<'
p8
NNNI-1
I-1
I0
tp9
bS'\xb8\xa3\xcc\xbf\xafM\x97@'
p10
tp11
Rp12
g3
(g7
S'D\x95:\x89kp\x96@'
p13
tp14
Rp15
tp16
a(g3
(g7
S'\xf3\xaeZ\xb1\x1d\x06\xa3@'
p17
tp18
Rp19
g3
(g7
S'\\\xb1\x1de\xfe\xcd\x81@'
p20
tp21
Rp22
tp23
aa(lp24
(g3
(g7
S'VlG\x99\x7f\xfb{@'
p25
tp26
Rp27
g3
(g7
S'\xc4rO#,9u@'
p28
tp29
Rp30
tp31
a(g3
(g7
S'z[\xf2\xaeZ\xb5z@'
p32
tp33
Rp34
g3
(g7
S'\xaa\xd4I\\3\x83\x81@'
p35
tp36
Rp37
tp38
aa.