(lp0
S'w_9210'
p1
a(lp2
(cnumpy.core.multiarray
scalar
p3
(cnumpy
dtype
p4
(S'f8'
p5
I0
I1
tp6
Rp7
(I3
S'<'
p8
NNNI-1
I-1
I0
tp9
bS'\x1a\xc7q\x1c\xc7?\x91@'
p10
tp11
Rp12
g3
(g7
S'\xc7q\x1c\xc7qr\x97@'
p13
tp14
Rp15
tp16
a(g3
(g7
S'8\x8e\xe38\x8ev\xa0@'
p17
tp18
Rp19
g3
(g7
S'VUUUU\t\x84@'
p20
tp21
Rp22
tp23
aa(lp24
(g3
(g7
S'QUUUUev@'
p25
tp26
Rp27
g3
(g7
S'9\x8e\xe38\x0e\x11\x82@'
p28
tp29
Rp30
tp31
a(g3
(g7
S'\x8c\xe38\x8e\xc3\x83\x82@'
p32
tp33
Rp34
g3
(g7
S'\x8e\xe38\x8e#\xa7p@'
p35
tp36
Rp37
tp38
aa.