(lp0
S'w_9339'
p1
a(lp2
(cnumpy.core.multiarray
scalar
p3
(cnumpy
dtype
p4
(S'f8'
p5
I0
I1
tp6
Rp7
(I3
S'<'
p8
NNNI-1
I-1
I0
tp9
bS'|\x1aa\xb9\xa7\r\x8e@'
p10
tp11
Rp12
g3
(g7
S'\x8c.\xba\xe8\xa2\x89\x9e@'
p13
tp14
Rp15
tp16
a(g3
(g7
S' \xa6\x8fs\x90\xb2\x9d@'
p17
tp18
Rp19
g3
(g7
S'U\xa9\x93\xb8f~\x90@'
p20
tp21
Rp22
tp23
aa(lp24
(g3
(g7
S'F\x17]t\xd14\x85@'
p25
tp26
Rp27
g3
(g7
S'F\x17]t\xd1^\x83@'
p28
tp29
Rp30
tp31
a(g3
(g7
S'\xd0E\x17]t\x8fz@'
p32
tp33
Rp34
g3
(g7
S'\x18]t\xd1E\xefq@'
p35
tp36
Rp37
tp38
aa.