(lp0
S'w_939'
p1
a(lp2
(cnumpy.core.multiarray
scalar
p3
(cnumpy
dtype
p4
(S'f8'
p5
I0
I1
tp6
Rp7
(I3
S'<'
p8
NNNI-1
I-1
I0
tp9
bS'9\x8e\xe38.;\x96@'
p10
tp11
Rp12
g3
(g7
S'r\x1c\xc7q,8\x98@'
p13
tp14
Rp15
tp16
a(g3
(g7
S"r\x1c\xc7q\x04'\xa2@"
p17
tp18
Rp19
g3
(g7
S'r\x1c\xc7q\xdcQ\x85@'
p20
tp21
Rp22
tp23
aa(lp24
(g3
(g7
S'\xe58\x8e\xe38\xb4\x7f@'
p25
tp26
Rp27
g3
(g7
S'9\x8e\xe38\x0e\xfc\x80@'
p28
tp29
Rp30
tp31
a(g3
(g7
S'\xc7q\x1c\xc7qTr@'
p32
tp33
Rp34
g3
(g7
S'\x8e\xe38\x8e\xe3\x10u@'
p35
tp36
Rp37
tp38
aa.