(lp0
S'w_9560'
p1
a(lp2
(cnumpy.core.multiarray
scalar
p3
(cnumpy
dtype
p4
(S'f8'
p5
I0
I1
tp6
Rp7
(I3
S'<'
p8
NNNI-1
I-1
I0
tp9
bS'l\xc5v\x94\xf9e\x97@'
p10
tp11
Rp12
g3
(g7
S'\xbc)4\x81a\x96\x90@'
p13
tp14
Rp15
tp16
a(g3
(g7
S'$m\x88*5\xd0\xa0@'
p17
tp18
Rp19
g3
(g7
S'$iCT\xa9gz@'
p20
tp21
Rp22
tp23
aa(lp24
(g3
(g7
S'O\xe2\x9a\x01\x82\xb2z@'
p25
tp26
Rp27
g3
(g7
S'4@Pd\xbd\xbco@'
p28
tp29
Rp30
tp31
a(g3
(g7
S'"\xaa\xd4I\\Km@'
p32
tp33
Rp34
g3
(g7
S'\r\x10\x14Y/\xe7q@'
p35
tp36
Rp37
tp38
aa.