(lp0
S'w_9504'
p1
a(lp2
(cnumpy.core.multiarray
scalar
p3
(cnumpy
dtype
p4
(S'f8'
p5
I0
I1
tp6
Rp7
(I3
S'<'
p8
NNNI-1
I-1
I0
tp9
bS'\xb8\xa7\x11\x96{\xe5\x9e@'
p10
tp11
Rp12
g3
(g7
S'>Pd\xbd\xec\x17\x9b@'
p13
tp14
Rp15
tp16
a(g3
(g7
S'\x17]t\xd1E@\xac@'
p17
tp18
Rp19
g3
(g7
S'\xb0\xa7\x11\x96{\xe0~@'
p20
tp21
Rp22
tp23
aa(lp24
(g3
(g7
S'J\\3@\xd0\x01\x91@'
p25
tp26
Rp27
g3
(g7
S'\x8b\xac\x97\xfd<8\x81@'
p28
tp29
Rp30
tp31
a(g3
(g7
S'I\\3@P\xb4\x81@'
p32
tp33
Rp34
g3
(g7
S'<\x89k\x06\x088|@'
p35
tp36
Rp37
tp38
aa.