(lp0
S'w_9588'
p1
a(lp2
(cnumpy.core.multiarray
scalar
p3
(cnumpy
dtype
p4
(S'f8'
p5
I0
I1
tp6
Rp7
(I3
S'<'
p8
NNNI-1
I-1
I0
tp9
bS'\xbd)4\x81\xe1\xcc\x91@'
p10
tp11
Rp12
g3
(g7
S'vSh\x02\xc3V\x97@'
p13
tp14
Rp15
tp16
a(g3
(g7
S'd|[\xf2.\xfa\xa0@'
p17
tp18
Rp19
g3
(g7
S'\xac\x97\xfd<L\xdb\x82@'
p20
tp21
Rp22
tp23
aa(lp24
(g3
(g7
S'\xda\x10U\xea$(\x82@'
p25
tp26
Rp27
g3
(g7
S'Vh\x02\xc3\xb3\x04{@'
p28
tp29
Rp30
tp31
a(g3
(g7
S'0}\x9c\x83\xa4uq@'
p32
tp33
Rp34
g3
(g7
S'\xfe\xba)4\x81%z@'
p35
tp36
Rp37
tp38
aa.