(lp0
S'w_9725'
p1
a(lp2
(cnumpy.core.multiarray
scalar
p3
(cnumpy
dtype
p4
(S'f8'
p5
I0
I1
tp6
Rp7
(I3
S'<'
p8
NNNI-1
I-1
I0
tp9
bS'\xc5q\x1c\xc7q&\x98@'
p10
tp11
Rp12
g3
(g7
S'\xe48\x8e\xe38\x0e\x95@'
p13
tp14
Rp15
tp16
a(g3
(g7
S'\x1c\xc7q\x1c\xc7M\xa8@'
p17
tp18
Rp19
g3
(g7
S'`UUUU\xe5g@'
p20
tp21
Rp22
tp23
aa(lp24
(g3
(g7
S'\x1d\xc7q\x1c\xc7\xc9w@'
p25
tp26
Rp27
g3
(g7
S':\x8e\xe38\x8ej\x80@'
p28
tp29
Rp30
tp31
a(g3
(g7
S'\xc7q\x1c\xc7\xb1c\x90@'
p32
tp33
Rp34
g3
(g7
S'XUUUU\x91|@'
p35
tp36
Rp37
tp38
aa.