(lp0
S'w_9876'
p1
a(lp2
(cnumpy.core.multiarray
scalar
p3
(cnumpy
dtype
p4
(S'f8'
p5
I0
I1
tp6
Rp7
(I3
S'<'
p8
NNNI-1
I-1
I0
tp9
bS'>\xceA\xd2\x86\x92\x92@'
p10
tp11
Rp12
g3
(g7
S'\x9d\x83\xa4\r\xd1_\x93@'
p13
tp14
Rp15
tp16
a(g3
(g7
S'\x9d\xc45\x03\x04\x7f\xa0@'
p17
tp18
Rp19
g3
(g7
S'\xd8I\\3@n}@'
p20
tp21
Rp22
tp23
aa(lp24
(g3
(g7
S'|\x1e\xa6\x8fs\xc0m@'
p25
tp26
Rp27
g3
(g7
S'\x0eQ\xa5N\xe2zs@'
p28
tp29
Rp30
tp31
a(g3
(g7
S'5\x03\x04E\xd6\xcb\x81@'
p32
tp33
Rp34
g3
(g7
S'\xc0n\nM`\xcct@'
p35
tp36
Rp37
tp38
aa.