(lp0
S'w_9947'
p1
a(lp2
(cnumpy.core.multiarray
scalar
p3
(cnumpy
dtype
p4
(S'f8'
p5
I0
I1
tp6
Rp7
(I3
S'<'
p8
NNNI-1
I-1
I0
tp9
bS'\x9c\xc45\x03\x84H\x9f@'
p10
tp11
Rp12
g3
(g7
S'\xb0\x9bB\x13X\x7f\xa0@'
p13
tp14
Rp15
tp16
a(g3
(g7
S'%\xef\xaa\x15\x1b]\xa4@'
p17
tp18
Rp19
g3
(g7
S"\xa8R'qM\xf9\x98@"
p20
tp21
Rp22
tp23
aa(lp24
(g3
(g7
S'\xb4!\xaa\xd4IT`@'
p25
tp26
Rp27
g3
(g7
S'(\xb2^\xf6\xf3\x10}@'
p28
tp29
Rp30
tp31
a(g3
(g7
S'\xa7\x8fs\x90\xb4=w@'
p32
tp33
Rp34
g3
(g7
S'\xb2Z\xb1\x1denb@'
p35
tp36
Rp37
tp38
aa.