(lp0
S'w_990'
p1
a(lp2
(cnumpy.core.multiarray
scalar
p3
(cnumpy
dtype
p4
(S'f8'
p5
I0
I1
tp6
Rp7
(I3
S'<'
p8
NNNI-1
I-1
I0
tp9
bS'`\xf6\xf30}\x9a\x93@'
p10
tp11
Rp12
g3
(g7
S'\xcc~\x1e\xa6\x8fq\x94@'
p13
tp14
Rp15
tp16
a(g3
(g7
S'\xca\xbbj\xc5v\x92\x9d@'
p17
tp18
Rp19
g3
(g7
S'n\x88*u\x12\xd3\x84@'
p20
tp21
Rp22
tp23
aa(lp24
(g3
(g7
S'\xe0\xd7M\xa1\tt{@'
p25
tp26
Rp27
g3
(g7
S'H\xda\x10U\xea\x14g@'
p28
tp29
Rp30
tp31
a(g3
(g7
S'\x0c\xcf\x82c|\x13q@'
p32
tp33
Rp34
g3
(g7
S'\xbb)4\x81\xe15u@'
p35
tp36
Rp37
tp38
aa.