(lp0
S'w_10387'
p1
a(lp2
(cnumpy.core.multiarray
scalar
p3
(cnumpy
dtype
p4
(S'f8'
p5
I0
I1
tp6
Rp7
(I3
S'<'
p8
NNNI-1
I-1
I0
tp9
bS'\xf0\xbd\xf7\xde\xfb\xfa\xb4@'
p10
tp11
Rp12
g3
(g7
S'SJ)\xa5t\x03\xa2@'
p13
tp14
Rp15
tp16
a(g3
(g7
S'\\k\xad\xb5\x16*\x92@'
p17
tp18
Rp19
g3
(g7
S'@\xa5\x94RJ\xe5X@'
p20
tp21
Rp22
tp23
aa.