(lp0
S'w_10778'
p1
a(lp2
(cnumpy.core.multiarray
scalar
p3
(cnumpy
dtype
p4
(S'f8'
p5
I0
I1
tp6
Rp7
(I3
S'<'
p8
NNNI-1
I-1
I0
tp9
bS'!\x84\x10B\x08\xd5\x93@'
p10
tp11
Rp12
g3
(g7
S'|\xef\xbd\xf7\xde\xd3\x85@'
p13
tp14
Rp15
tp16
a(g3
(g7
S'\x10B\x08!\x84\x10H@'
p17
tp18
Rp19
g3
(g7
S'\x9cs\xce9\xe7\xb6\x9b@'
p20
tp21
Rp22
tp23
aa.