(lp0
S'w_10356'
p1
a(lp2
(cnumpy.core.multiarray
scalar
p3
(cnumpy
dtype
p4
(S'f8'
p5
I0
I1
tp6
Rp7
(I3
S'<'
p8
NNNI-1
I-1
I0
tp9
bS'\xbe\xf7\xde{\xcf\xbc\xa3@'
p10
tp11
Rp12
g3
(g7
S'l\xad\xb5\xd6\x9a\x1b\x91@'
p13
tp14
Rp15
tp16
a(g3
(g7
S'Zk\xad\xb5\xd6\xf8\x81@'
p17
tp18
Rp19
g3
(g7
S'`)\xa5\x94RVW@'
p20
tp21
Rp22
tp23
aa.