(lp0
S'w_10159'
p1
a(lp2
(cnumpy.core.multiarray
scalar
p3
(cnumpy
dtype
p4
(S'f8'
p5
I0
I1
tp6
Rp7
(I3
S'<'
p8
NNNI-1
I-1
I0
tp9
bS'\x9es\xce9\xe7\xae\x90@'
p10
tp11
Rp12
g3
(g7
S'\xad\xb5\xd6ZkG\x91@'
p13
tp14
Rp15
tp16
a(g3
(g7
S':\xe7\x9cs\xcez\xa1@'
p17
tp18
Rp19
g3
(g7
S'\xe6\x9cs\xce9m\x9e@'
p20
tp21
Rp22
tp23
aa.