(lp0
S'w_10293'
p1
a(lp2
(cnumpy.core.multiarray
scalar
p3
(cnumpy
dtype
p4
(S'f8'
p5
I0
I1
tp6
Rp7
(I3
S'<'
p8
NNNI-1
I-1
I0
tp9
bS'\xb6\xd6Zk\xad\x05\xa2@'
p10
tp11
Rp12
g3
(g7
S"9\xe7\x9csN'\x95@"
p13
tp14
Rp15
tp16
a(g3
(g7
S't\xce9\xe7\x9c\x9d\x85@'
p17
tp18
Rp19
g3
(g7
S'\x00\x00\x00\x00\x00dP@'
p20
tp21
Rp22
tp23
aa.