(lp0
S'w_10157'
p1
a(lp2
(cnumpy.core.multiarray
scalar
p3
(cnumpy
dtype
p4
(S'f8'
p5
I0
I1
tp6
Rp7
(I3
S'<'
p8
NNNI-1
I-1
I0
tp9
bS'\x84\x10B\x08!\xc5\x96@'
p10
tp11
Rp12
g3
(g7
S'8\xe7\x9cs\xce \x83@'
p13
tp14
Rp15
tp16
a(g3
(g7
S'PJ)\xa5\x94\xf6d@'
p17
tp18
Rp19
g3
(g7
S'\xf0\xbd\xf7\xde{\x92\x9b@'
p20
tp21
Rp22
tp23
aa.