(lp0
S'w_10475'
p1
a(lp2
(cnumpy.core.multiarray
scalar
p3
(cnumpy
dtype
p4
(S'f8'
p5
I0
I1
tp6
Rp7
(I3
S'<'
p8
NNNI-1
I-1
I0
tp9
bS'\xdf{\xef\xbd\xf7\xae\x9c@'
p10
tp11
Rp12
g3
(g7
S'\xc4\x18c\x8c16\x80@'
p13
tp14
Rp15
tp16
a(g3
(g7
S'\xbe\xf7\xde{\xefD\xa9@'
p17
tp18
Rp19
g3
(g7
S'\xe0{\xef\xbd\xf7`\xa0@'
p20
tp21
Rp22
tp23
aa.