(lp0
S'w_10002'
p1
a(lp2
(cnumpy.core.multiarray
scalar
p3
(cnumpy
dtype
p4
(S'f8'
p5
I0
I1
tp6
Rp7
(I3
S'<'
p8
NNNI-1
I-1
I0
tp9
bS':\xe7\x9cs\xceo\x90@'
p10
tp11
Rp12
g3
(g7
S'\xe8\x9cs\xce9#\x8b@'
p13
tp14
Rp15
tp16
a(g3
(g7
S'\x94RJ)\xa5k\xa6@'
p17
tp18
Rp19
g3
(g7
S'\x10B\x08!\x04{\x9e@'
p20
tp21
Rp22
tp23
aa.