(lp0
S'w_1034'
p1
a(lp2
(cnumpy.core.multiarray
scalar
p3
(cnumpy
dtype
p4
(S'f8'
p5
I0
I1
tp6
Rp7
(I3
S'<'
p8
NNNI-1
I-1
I0
tp9
bS'SJ)\xa5\x94\xaf\x95@'
p10
tp11
Rp12
g3
(g7
S'm\xad\xb5\xd6Zj\x9e@'
p13
tp14
Rp15
tp16
a(g3
(g7
S'\xa0\x10B\x08!\x04(@'
p17
tp18
Rp19
g3
(g7
S'H)\xa5\x94R\x14r@'
p20
tp21
Rp22
tp23
aa.