(lp0
S'w_10799'
p1
a(lp2
(cnumpy.core.multiarray
scalar
p3
(cnumpy
dtype
p4
(S'f8'
p5
I0
I1
tp6
Rp7
(I3
S'<'
p8
NNNI-1
I-1
I0
tp9
bS'k\xad\xb5\xd6\x9a\xfb\x9a@'
p10
tp11
Rp12
g3
(g7
S'\xee\xbd\xf7\xde{\x1d\x8a@'
p13
tp14
Rp15
tp16
a(g3
(g7
S'\x0fB\x08!\x84lr@'
p17
tp18
Rp19
g3
(g7
S'\xc0b\x8c1\xc6\xa87@'
p20
tp21
Rp22
tp23
aa.