(lp0
S'w_10830'
p1
a(lp2
(cnumpy.core.multiarray
scalar
p3
(cnumpy
dtype
p4
(S'f8'
p5
I0
I1
tp6
Rp7
(I3
S'<'
p8
NNNI-1
I-1
I0
tp9
bS't\xce9\xe7\x1c\xc3\xa1@'
p10
tp11
Rp12
g3
(g7
S'\xd6Zk\xad\xb5\xad\x8d@'
p13
tp14
Rp15
tp16
a(g3
(g7
S'K)\xa5\x94R\xaet@'
p17
tp18
Rp19
g3
(g7
S'\x83\x10B\x08\xa1\x1f\x9d@'
p20
tp21
Rp22
tp23
aa.