(lp0
S'w_10914'
p1
a(lp2
(cnumpy.core.multiarray
scalar
p3
(cnumpy
dtype
p4
(S'f8'
p5
I0
I1
tp6
Rp7
(I3
S'<'
p8
NNNI-1
I-1
I0
tp9
bS'c\x8c1\xc6\x98\x07\xa1@'
p10
tp11
Rp12
g3
(g7
S'C\x08!\x84\x10\xab\x90@'
p13
tp14
Rp15
tp16
a(g3
(g7
S'\xe1{\xef\xbd\xf7\xfew@'
p17
tp18
Rp19
g3
(g7
S'p\xce9\xe7\x9c\xb3b@'
p20
tp21
Rp22
tp23
aa.