(lp0
S'w_10786'
p1
a(lp2
(cnumpy.core.multiarray
scalar
p3
(cnumpy
dtype
p4
(S'f8'
p5
I0
I1
tp6
Rp7
(I3
S'<'
p8
NNNI-1
I-1
I0
tp9
bS')\xa5\x94RJC\xa2@'
p10
tp11
Rp12
g3
(g7
S'b\x8c1\xc6\x18\x1f\x90@'
p13
tp14
Rp15
tp16
a(g3
(g7
S' \x84\x10B\x08U\x84@'
p17
tp18
Rp19
g3
(g7
S'\xc0\xff\xff\xff\xff\x7fN@'
p20
tp21
Rp22
tp23
aa.