(lp0
S'w_10246'
p1
a(lp2
(cnumpy.core.multiarray
scalar
p3
(cnumpy
dtype
p4
(S'f8'
p5
I0
I1
tp6
Rp7
(I3
S'<'
p8
NNNI-1
I-1
I0
tp9
bS'l\xad\xb5\xd6\x9a\x06\xa7@'
p10
tp11
Rp12
g3
(g7
S'\xf9\xde{\xef\xbdN\x9b@'
p13
tp14
Rp15
tp16
a(g3
(g7
S'\xdf{\xef\xbdw\x91\x88@'
p17
tp18
Rp19
g3
(g7
S'\xc0Zk\xad\xb5~Y@'
p20
tp21
Rp22
tp23
aa.