(lp0
S'w_10381'
p1
a(lp2
(cnumpy.core.multiarray
scalar
p3
(cnumpy
dtype
p4
(S'f8'
p5
I0
I1
tp6
Rp7
(I3
S'<'
p8
NNNI-1
I-1
I0
tp9
bS'k\xad\xb5\xd6Z\x12\x9d@'
p10
tp11
Rp12
g3
(g7
S'\xc4\x18c\x8c\xb1N\x87@'
p13
tp14
Rp15
tp16
a(g3
(g7
S'\x801\xc6\x18c\x1c2@'
p17
tp18
Rp19
g3
(g7
S'\xc0\xd6Zk\xad5@@'
p20
tp21
Rp22
tp23
aa.