(lp0
S'w_10039'
p1
a(lp2
(cnumpy.core.multiarray
scalar
p3
(cnumpy
dtype
p4
(S'f8'
p5
I0
I1
tp6
Rp7
(I3
S'<'
p8
NNNI-1
I-1
I0
tp9
bS'\xe8\x9cs\xce\xb9\x03\x9c@'
p10
tp11
Rp12
g3
(g7
S'TJ)\xa5\x14\n\x94@'
p13
tp14
Rp15
tp16
a(g3
(g7
S'\x84\x10B\x08\xa1X\xac@'
p17
tp18
Rp19
g3
(g7
S'\xb7\xd6Zk\xadh\xa5@'
p20
tp21
Rp22
tp23
aa.