(lp0
S'w_11198'
p1
a(lp2
(cnumpy.core.multiarray
scalar
p3
(cnumpy
dtype
p4
(S'f8'
p5
I0
I1
tp6
Rp7
(I3
S'<'
p8
NNNI-1
I-1
I0
tp9
bS':\xe7\x9cs\xce\xa7\xa2@'
p10
tp11
Rp12
g3
(g7
S'\xd6Zk\xad\xb5\x90\x90@'
p13
tp14
Rp15
tp16
a(g3
(g7
S'\x90RJ)\xa5\xf4]@'
p17
tp18
Rp19
g3
(g7
S'\x00\xdf{\xef\xbd\xb7B@'
p20
tp21
Rp22
tp23
aa.