(lp0
S'w_11342'
p1
a(lp2
(cnumpy.core.multiarray
scalar
p3
(cnumpy
dtype
p4
(S'f8'
p5
I0
I1
tp6
Rp7
(I3
S'<'
p8
NNNI-1
I-1
I0
tp9
bS'\xef\xbd\xf7\xde\xfb\x98\x91@'
p10
tp11
Rp12
g3
(g7
S'\xe8\x9cs\xce\xb9\x0f\x97@'
p13
tp14
Rp15
tp16
a(g3
(g7
S' c\x8c1\xc6\x187@'
p17
tp18
Rp19
g3
(g7
S'\xe0\xde{\xef\xbdgV@'
p20
tp21
Rp22
tp23
aa.