(lp0
S'w_11023'
p1
a(lp2
(cnumpy.core.multiarray
scalar
p3
(cnumpy
dtype
p4
(S'f8'
p5
I0
I1
tp6
Rp7
(I3
S'<'
p8
NNNI-1
I-1
I0
tp9
bS'\x8c1\xc6\x18\xe3\x8d\x87@'
p10
tp11
Rp12
g3
(g7
S'H)\xa5\x94\xd2\xac\x8f@'
p13
tp14
Rp15
tp16
a(g3
(g7
S'1\xc6\x18c\xcc\x06\xaa@'
p17
tp18
Rp19
g3
(g7
S'\xd6Zk\xad\xd5 \xa5@'
p20
tp21
Rp22
tp23
aa.