(lp0
S'w_11460'
p1
a(lp2
(cnumpy.core.multiarray
scalar
p3
(cnumpy
dtype
p4
(S'f8'
p5
I0
I1
tp6
Rp7
(I3
S'<'
p8
NNNI-1
I-1
I0
tp9
bS'\xbe\xf7\xde{\xef\xd7\x92@'
p10
tp11
Rp12
g3
(g7
S'K)\xa5\x94R0\x93@'
p13
tp14
Rp15
tp16
a(g3
(g7
S'\xc6\x18c\x8c1R\xa9@'
p17
tp18
Rp19
g3
(g7
S'\x80\xb5\xd6ZkmA@'
p20
tp21
Rp22
tp23
aa.