(lp0
S'w_11359'
p1
a(lp2
(cnumpy.core.multiarray
scalar
p3
(cnumpy
dtype
p4
(S'f8'
p5
I0
I1
tp6
Rp7
(I3
S'<'
p8
NNNI-1
I-1
I0
tp9
bS'\xae\xb5\xd6Zkp\x92@'
p10
tp11
Rp12
g3
(g7
S'8\xe7\x9cs\xce\xa7{@'
p13
tp14
Rp15
tp16
a(g3
(g7
S'B\x08!\x84\xd0\xcd\xa2@'
p17
tp18
Rp19
g3
(g7
S'B\x08!\x84\x90\xd7\x99@'
p20
tp21
Rp22
tp23
aa.