(lp0
S'w_11269'
p1
a(lp2
(cnumpy.core.multiarray
scalar
p3
(cnumpy
dtype
p4
(S'f8'
p5
I0
I1
tp6
Rp7
(I3
S'<'
p8
NNNI-1
I-1
I0
tp9
bS'B\x08!\x84\x107\x94@'
p10
tp11
Rp12
g3
(g7
S'\xf0\xde{\xef\xbd+v@'
p13
tp14
Rp15
tp16
a(g3
(g7
S'\xbe\xf7\xde{\xef2\xa5@'
p17
tp18
Rp19
g3
(g7
S'\x94RJ)\xa5&\x9d@'
p20
tp21
Rp22
tp23
aa.