(lp0
S'w_11115'
p1
a(lp2
(cnumpy.core.multiarray
scalar
p3
(cnumpy
dtype
p4
(S'f8'
p5
I0
I1
tp6
Rp7
(I3
S'<'
p8
NNNI-1
I-1
I0
tp9
bS':\xe7\x9cs\x8ea\xa1@'
p10
tp11
Rp12
g3
(g7
S'\x10B\x08!\x04\x1b\x97@'
p13
tp14
Rp15
tp16
a(g3
(g7
S'\x80\xef\xbd\xf7\xdecU@'
p17
tp18
Rp19
g3
(g7
S'SJ)\xa5\xd49\xad@'
p20
tp21
Rp22
tp23
aa.