(lp0
S'w_1231'
p1
a(lp2
(cnumpy.core.multiarray
scalar
p3
(cnumpy
dtype
p4
(S'f8'
p5
I0
I1
tp6
Rp7
(I3
S'<'
p8
NNNI-1
I-1
I0
tp9
bS'\xbe\xf7\xde{\xef\xbb\x99@'
p10
tp11
Rp12
g3
(g7
S'\x90RJ)\xa5\x84j@'
p13
tp14
Rp15
tp16
a(g3
(g7
S'\xf0\xde{\xef\xbd\xb7N@'
p17
tp18
Rp19
g3
(g7
S'\x1ac\x8c1\xc6\x16\x9f@'
p20
tp21
Rp22
tp23
aa.