(lp0
S'w_1303'
p1
a(lp2
(cnumpy.core.multiarray
scalar
p3
(cnumpy
dtype
p4
(S'f8'
p5
I0
I1
tp6
Rp7
(I3
S'<'
p8
NNNI-1
I-1
I0
tp9
bS'\xa6\x94RJ)c\x9d@'
p10
tp11
Rp12
g3
(g7
S"\x01\x00\x00\x00\x00'\xaa@"
p13
tp14
Rp15
tp16
a(g3
(g7
S'\xe0\x9cs\xce9\xa7D@'
p17
tp18
Rp19
g3
(g7
S'Xk\xad\xb5\xd6\x96\x88@'
p20
tp21
Rp22
tp23
aa.