(lp0
S'w_1345'
p1
a(lp2
(cnumpy.core.multiarray
scalar
p3
(cnumpy
dtype
p4
(S'f8'
p5
I0
I1
tp6
Rp7
(I3
S'<'
p8
NNNI-1
I-1
I0
tp9
bS'B\x08!\x84\xd0\xfc\x93@'
p10
tp11
Rp12
g3
(g7
S'\xdcZk\xad5F\x81@'
p13
tp14
Rp15
tp16
a(g3
(g7
S'\xd89\xe7\x9cs\x1eB@'
p17
tp18
Rp19
g3
(g7
S'\x00\x00\x00\x00@\xa4\x9e@'
p20
tp21
Rp22
tp23
aa.