(lp0
S'w_156'
p1
a(lp2
(cnumpy.core.multiarray
scalar
p3
(cnumpy
dtype
p4
(S'f8'
p5
I0
I1
tp6
Rp7
(I3
S'<'
p8
NNNI-1
I-1
I0
tp9
bS'\x10B\x08!\x84\t\x87@'
p10
tp11
Rp12
g3
(g7
S' \x84\x10B\x08\xb0\x92@'
p13
tp14
Rp15
tp16
a(g3
(g7
S'\xe8\x9cs\xcey\xea\xa7@'
p17
tp18
Rp19
g3
(g7
S'@\x94RJ)\x85G@'
p20
tp21
Rp22
tp23
aa.