(lp0
S'w_1643'
p1
a(lp2
(cnumpy.core.multiarray
scalar
p3
(cnumpy
dtype
p4
(S'f8'
p5
I0
I1
tp6
Rp7
(I3
S'<'
p8
NNNI-1
I-1
I0
tp9
bS'{\xef\xbd\xf7\x1ea\x95@'
p10
tp11
Rp12
g3
(g7
S'J)\xa5\x94\x12\xdf\x9b@'
p13
tp14
Rp15
tp16
a(g3
(g7
S'Xk\xad\xb5\xd6"D@'
p17
tp18
Rp19
g3
(g7
S'\x00\xe7\x9cs\xce1B@'
p20
tp21
Rp22
tp23
aa.