(lp0
S'w_1733'
p1
a(lp2
(cnumpy.core.multiarray
scalar
p3
(cnumpy
dtype
p4
(S'f8'
p5
I0
I1
tp6
Rp7
(I3
S'<'
p8
NNNI-1
I-1
I0
tp9
bS'\xf8\xde{\xef\xbd#b@'
p10
tp11
Rp12
g3
(g7
S'\xe0{\xef\xbd\xb7)\x90@'
p13
tp14
Rp15
tp16
a(g3
(g7
S'\xbe\xf7\xde{\xcfb\xa9@'
p17
tp18
Rp19
g3
(g7
S'\x80\xa5\x94RJY<@'
p20
tp21
Rp22
tp23
aa.