(lp0
S'w_1739'
p1
a(lp2
(cnumpy.core.multiarray
scalar
p3
(cnumpy
dtype
p4
(S'f8'
p5
I0
I1
tp6
Rp7
(I3
S'<'
p8
NNNI-1
I-1
I0
tp9
bS'{\xef\xbd\xf7\x1e\xfe\x93@'
p10
tp11
Rp12
g3
(g7
S'\x8d1\xc6\x18#Z\x9e@'
p13
tp14
Rp15
tp16
a(g3
(g7
S'\x901\xc6\x18c\x9cA@'
p17
tp18
Rp19
g3
(g7
S'\x00\xdf{\xef\xbd\xafB@'
p20
tp21
Rp22
tp23
aa.