(lp0
S'w_1894'
p1
a(lp2
(cnumpy.core.multiarray
scalar
p3
(cnumpy
dtype
p4
(S'f8'
p5
I0
I1
tp6
Rp7
(I3
S'<'
p8
NNNI-1
I-1
I0
tp9
bS'd\x8c1\xc6\x18:\x99@'
p10
tp11
Rp12
g3
(g7
S'\x00\x00\x00\x00\xe0\x8f\xa0@'
p13
tp14
Rp15
tp16
a(g3
(g7
S'\x88\x10B\x08!lP@'
p17
tp18
Rp19
g3
(g7
S'\xe09\xe7\x9cs\xa2W@'
p20
tp21
Rp22
tp23
aa.