(lp0
S'w_1994'
p1
a(lp2
(cnumpy.core.multiarray
scalar
p3
(cnumpy
dtype
p4
(S'f8'
p5
I0
I1
tp6
Rp7
(I3
S'<'
p8
NNNI-1
I-1
I0
tp9
bS'\xad\xb5\xd6Zk\xab\x95@'
p10
tp11
Rp12
g3
(g7
S'\x08!\x84\x10B\x04\x83@'
p13
tp14
Rp15
tp16
a(g3
(g7
S'\xb0\xb5\xd6ZkmE@'
p17
tp18
Rp19
g3
(g7
S'~\xef\xbd\xf7\xdey\x9f@'
p20
tp21
Rp22
tp23
aa.