(lp0
S'w_197'
p1
a(lp2
(cnumpy.core.multiarray
scalar
p3
(cnumpy
dtype
p4
(S'f8'
p5
I0
I1
tp6
Rp7
(I3
S'<'
p8
NNNI-1
I-1
I0
tp9
bS'\xde{\xef\xbd\xb7Y\xa4@'
p10
tp11
Rp12
g3
(g7
S'\xe8\x9cs\xce9,\x93@'
p13
tp14
Rp15
tp16
a(g3
(g7
S'\xd09\xe7\x9cs\x9eP@'
p17
tp18
Rp19
g3
(g7
S'@\xc6\x18c\x8cqA@'
p20
tp21
Rp22
tp23
aa.