(lp0
S'w_2074'
p1
a(lp2
(cnumpy.core.multiarray
scalar
p3
(cnumpy
dtype
p4
(S'f8'
p5
I0
I1
tp6
Rp7
(I3
S'<'
p8
NNNI-1
I-1
I0
tp9
bS'\xde{\xef\xbd\xf7\x84\xa1@'
p10
tp11
Rp12
g3
(g7
S'\x80\xd6Zk\xadER@'
p13
tp14
Rp15
tp16
a(g3
(g7
S'\x08!\x84\x10\x02\x01\xb1@'
p17
tp18
Rp19
g3
(g7
S'\xe0{\xef\xbdw\x82\xa6@'
p20
tp21
Rp22
tp23
aa.