(lp0
S'w_2178'
p1
a(lp2
(cnumpy.core.multiarray
scalar
p3
(cnumpy
dtype
p4
(S'f8'
p5
I0
I1
tp6
Rp7
(I3
S'<'
p8
NNNI-1
I-1
I0
tp9
bS'SJ)\xa5\xd4\xb2\x9c@'
p10
tp11
Rp12
g3
(g7
S'l\xad\xb5\xd6\x9a\xc5\x9e@'
p13
tp14
Rp15
tp16
a(g3
(g7
S'[k\xad\xb5\x16\x08\xa8@'
p17
tp18
Rp19
g3
(g7
S'\x00\x08!\x84\x10R:@'
p20
tp21
Rp22
tp23
aa.