(lp0
S'w_2125'
p1
a(lp2
(cnumpy.core.multiarray
scalar
p3
(cnumpy
dtype
p4
(S'f8'
p5
I0
I1
tp6
Rp7
(I3
S'<'
p8
NNNI-1
I-1
I0
tp9
bS'XJ)\xa5\x942Z@'
p10
tp11
Rp12
g3
(g7
S'\xaf\xb5\xd6Zk[\x93@'
p13
tp14
Rp15
tp16
a(g3
(g7
S'\xf7\xde{\xef\xbd.\xa7@'
p17
tp18
Rp19
g3
(g7
S'\xf0\xbd\xf7\xde{\x9e\xa0@'
p20
tp21
Rp22
tp23
aa.