(lp0
S'w_2292'
p1
a(lp2
(cnumpy.core.multiarray
scalar
p3
(cnumpy
dtype
p4
(S'f8'
p5
I0
I1
tp6
Rp7
(I3
S'<'
p8
NNNI-1
I-1
I0
tp9
bS'J)\xa5\x94\xd2]\x98@'
p10
tp11
Rp12
g3
(g7
S'|\xef\xbd\xf7\xbe\xce\xa0@'
p13
tp14
Rp15
tp16
a(g3
(g7
S'@\xe7\x9cs\xceiC@'
p17
tp18
Rp19
g3
(g7
S'@\x94RJ)%A@'
p20
tp21
Rp22
tp23
aa.