(lp0
S'w_2248'
p1
a(lp2
(cnumpy.core.multiarray
scalar
p3
(cnumpy
dtype
p4
(S'f8'
p5
I0
I1
tp6
Rp7
(I3
S'<'
p8
NNNI-1
I-1
I0
tp9
bS's\xce9\xe7\\\xba\xa1@'
p10
tp11
Rp12
g3
(g7
S'\xa0\xad\xb5\xd6Z7U@'
p13
tp14
Rp15
tp16
a(g3
(g7
S'p\xef\xbd\xf7\xdekN@'
p17
tp18
Rp19
g3
(g7
S'\xbf\xf7\xde{\x0f\x10\xaa@'
p20
tp21
Rp22
tp23
aa.