(lp0
S'w_2270'
p1
a(lp2
(cnumpy.core.multiarray
scalar
p3
(cnumpy
dtype
p4
(S'f8'
p5
I0
I1
tp6
Rp7
(I3
S'<'
p8
NNNI-1
I-1
I0
tp9
bS'`k\xad\xb5\xd6\x9aC@'
p10
tp11
Rp12
g3
(g7
S'\xb6\xd6Zk\xad\xdc\x92@'
p13
tp14
Rp15
tp16
a(g3
(g7
S'K)\xa5\x94\x121\xa3@'
p17
tp18
Rp19
g3
(g7
S'2\xc6\x18c\x0c\x9c\x99@'
p20
tp21
Rp22
tp23
aa.