(lp0
S'w_2361'
p1
a(lp2
(cnumpy.core.multiarray
scalar
p3
(cnumpy
dtype
p4
(S'f8'
p5
I0
I1
tp6
Rp7
(I3
S'<'
p8
NNNI-1
I-1
I0
tp9
bS' \x84\x10B\x08\x87\xa3@'
p10
tp11
Rp12
g3
(g7
S'\xa5\x94RJ)\xc5\x91@'
p13
tp14
Rp15
tp16
a(g3
(g7
S'\xa4\x94RJ)\xcdp@'
p17
tp18
Rp19
g3
(g7
S'\xa0\xb5\xd6Zk\xedQ@'
p20
tp21
Rp22
tp23
aa.