(lp0
S'w_2441'
p1
a(lp2
(cnumpy.core.multiarray
scalar
p3
(cnumpy
dtype
p4
(S'f8'
p5
I0
I1
tp6
Rp7
(I3
S'<'
p8
NNNI-1
I-1
I0
tp9
bS'\xb5\xd6Zk\xad\xb4\xa7@'
p10
tp11
Rp12
g3
(g7
S'\x84\x10B\x08!\x80\x86@'
p13
tp14
Rp15
tp16
a(g3
(g7
S'\xe0\xde{\xef\xbdw>@'
p17
tp18
Rp19
g3
(g7
S'\x80\x94RJ)%4@'
p20
tp21
Rp22
tp23
aa.