(lp0
S'w_2470'
p1
a(lp2
(cnumpy.core.multiarray
scalar
p3
(cnumpy
dtype
p4
(S'f8'
p5
I0
I1
tp6
Rp7
(I3
S'<'
p8
NNNI-1
I-1
I0
tp9
bS'\x07!\x84\x10\xc2o\x97@'
p10
tp11
Rp12
g3
(g7
S'\x11B\x08!\x84\xde\xa0@'
p13
tp14
Rp15
tp16
a(g3
(g7
S'`k\xad\xb5\xd6\xaaC@'
p17
tp18
Rp19
g3
(g7
S' \x00\x00\x00\x00\xfcP@'
p20
tp21
Rp22
tp23
aa.