(lp0
S'w_2449'
p1
a(lp2
(cnumpy.core.multiarray
scalar
p3
(cnumpy
dtype
p4
(S'f8'
p5
I0
I1
tp6
Rp7
(I3
S'<'
p8
NNNI-1
I-1
I0
tp9
bS'c\x8c1\xc6X\xfe\xa1@'
p10
tp11
Rp12
g3
(g7
S'\xbe\xf7\xde{/\x8e\xa8@'
p13
tp14
Rp15
tp16
a(g3
(g7
S'\x9cs\xce9\xf7\xf4\xb2@'
p17
tp18
Rp19
g3
(g7
S'\xc0\xf7\xde{\xef\xcdV@'
p20
tp21
Rp22
tp23
aa.