(lp0
S'w_2427'
p1
a(lp2
(cnumpy.core.multiarray
scalar
p3
(cnumpy
dtype
p4
(S'f8'
p5
I0
I1
tp6
Rp7
(I3
S'<'
p8
NNNI-1
I-1
I0
tp9
bS'2\xc6\x18c\x0cf\x9e@'
p10
tp11
Rp12
g3
(g7
S'\xc01\xc6\x18c\x9cG@'
p13
tp14
Rp15
tp16
a(g3
(g7
S'J)\xa5\x94\xb2\x0b\xa9@'
p17
tp18
Rp19
g3
(g7
S'\xc8\x18c\x8c1\x9d\x98@'
p20
tp21
Rp22
tp23
aa.