(lp0
S'w_2438'
p1
a(lp2
(cnumpy.core.multiarray
scalar
p3
(cnumpy
dtype
p4
(S'f8'
p5
I0
I1
tp6
Rp7
(I3
S'<'
p8
NNNI-1
I-1
I0
tp9
bS'I)\xa5\x94RY\x93@'
p10
tp11
Rp12
g3
(g7
S'\x00\xa5\x94RJiK@'
p13
tp14
Rp15
tp16
a(g3
(g7
S'\xd8{\xef\xbd\xf7~D@'
p17
tp18
Rp19
g3
(g7
S'\xf0\xbd\xf7\xde{\x8c\x9c@'
p20
tp21
Rp22
tp23
aa.