(lp0
S'w_2595'
p1
a(lp2
(cnumpy.core.multiarray
scalar
p3
(cnumpy
dtype
p4
(S'f8'
p5
I0
I1
tp6
Rp7
(I3
S'<'
p8
NNNI-1
I-1
I0
tp9
bS'SJ)\xa5\x94I\xa6@'
p10
tp11
Rp12
g3
(g7
S'l\xad\xb5\xd6Zz\xa6@'
p13
tp14
Rp15
tp16
a(g3
(g7
S'\x95RJ)% \xb4@'
p17
tp18
Rp19
g3
(g7
S'\x80{\xef\xbd\xf7\x9eK@'
p20
tp21
Rp22
tp23
aa.