(lp0
S'w_2675'
p1
a(lp2
(cnumpy.core.multiarray
scalar
p3
(cnumpy
dtype
p4
(S'f8'
p5
I0
I1
tp6
Rp7
(I3
S'<'
p8
NNNI-1
I-1
I0
tp9
bS'\xb6\xd6Zk\xadE\x96@'
p10
tp11
Rp12
g3
(g7
S'~\xef\xbd\xf7^\x83\x9e@'
p13
tp14
Rp15
tp16
a(g3
(g7
S'\xde{\xef\xbd\xf7\x08\xa8@'
p17
tp18
Rp19
g3
(g7
S'\x00c\x8c1\xc6\xb8T@'
p20
tp21
Rp22
tp23
aa.