(lp0
S'w_2604'
p1
a(lp2
(cnumpy.core.multiarray
scalar
p3
(cnumpy
dtype
p4
(S'f8'
p5
I0
I1
tp6
Rp7
(I3
S'<'
p8
NNNI-1
I-1
I0
tp9
bS'\x8d1\xc6\x18\xa3\xcb\x9c@'
p10
tp11
Rp12
g3
(g7
S')\xa5\x94R\n\x0f\x90@'
p13
tp14
Rp15
tp16
a(g3
(g7
S'0\xa5\x94RJ\xa1D@'
p17
tp18
Rp19
g3
(g7
S'\x00\xc6\x18c\x8c\xb9B@'
p20
tp21
Rp22
tp23
aa.