(lp0
S'w_2827'
p1
a(lp2
(cnumpy.core.multiarray
scalar
p3
(cnumpy
dtype
p4
(S'f8'
p5
I0
I1
tp6
Rp7
(I3
S'<'
p8
NNNI-1
I-1
I0
tp9
bS'\x12B\x08!\x04\x89\x80@'
p10
tp11
Rp12
g3
(g7
S'\\k\xad\xb5\xd6*\x8c@'
p13
tp14
Rp15
tp16
a(g3
(g7
S'\x9es\xce9\xa7;\xa5@'
p17
tp18
Rp19
g3
(g7
S'K)\xa5\x94\xb2C\xa0@'
p20
tp21
Rp22
tp23
aa.