(lp0
S'w_2804'
p1
a(lp2
(cnumpy.core.multiarray
scalar
p3
(cnumpy
dtype
p4
(S'f8'
p5
I0
I1
tp6
Rp7
(I3
S'<'
p8
NNNI-1
I-1
I0
tp9
bS'J)\xa5\x94RH\x95@'
p10
tp11
Rp12
g3
(g7
S'\xc0\xd6Zk\xaduF@'
p13
tp14
Rp15
tp16
a(g3
(g7
S'\x90RJ)\xa5TB@'
p17
tp18
Rp19
g3
(g7
S'\xa6\x94RJ)\xa3\x97@'
p20
tp21
Rp22
tp23
aa.