(lp0
S'w_2852'
p1
a(lp2
(cnumpy.core.multiarray
scalar
p3
(cnumpy
dtype
p4
(S'f8'
p5
I0
I1
tp6
Rp7
(I3
S'<'
p8
NNNI-1
I-1
I0
tp9
bS'\xce9\xe7\x9cs\xd6\xa3@'
p10
tp11
Rp12
g3
(g7
S'\x85\x10B\x08\xa1\xa6\x92@'
p13
tp14
Rp15
tp16
a(g3
(g7
S'\xba\xf7\xde{\xef\xa7b@'
p17
tp18
Rp19
g3
(g7
S'c\x8c1\xc6X\xe9\x9e@'
p20
tp21
Rp22
tp23
aa.