(lp0
S'w_2857'
p1
a(lp2
(cnumpy.core.multiarray
scalar
p3
(cnumpy
dtype
p4
(S'f8'
p5
I0
I1
tp6
Rp7
(I3
S'<'
p8
NNNI-1
I-1
I0
tp9
bS'\x00\x00\x00\x00:1\x9b@'
p10
tp11
Rp12
g3
(g7
S'\xe0\xff\xff\xff?VJ@'
p13
tp14
Rp15
tp16
a(g3
(g7
S'\x00\x00\x00\x00\xe0\x17V@'
p17
tp18
Rp19
g3
(g7
S'\x00\x00\x00\x00H\n\x95@'
p20
tp21
Rp22
tp23
aa.