(lp0
S'w_2982'
p1
a(lp2
(cnumpy.core.multiarray
scalar
p3
(cnumpy
dtype
p4
(S'f8'
p5
I0
I1
tp6
Rp7
(I3
S'<'
p8
NNNI-1
I-1
I0
tp9
bS'r\xce9\xe7\x9ckv@'
p10
tp11
Rp12
g3
(g7
S'd\x8c1\xc6\x18a\x90@'
p13
tp14
Rp15
tp16
a(g3
(g7
S'\xdf{\xef\xbd\xf7]\xa1@'
p17
tp18
Rp19
g3
(g7
S'\xc0\xd6Zk\xaduF@'
p20
tp21
Rp22
tp23
aa.