(lp0
S'w_2946'
p1
a(lp2
(cnumpy.core.multiarray
scalar
p3
(cnumpy
dtype
p4
(S'f8'
p5
I0
I1
tp6
Rp7
(I3
S'<'
p8
NNNI-1
I-1
I0
tp9
bS'\xc7\x18c\x8c1\xe8q@'
p10
tp11
Rp12
g3
(g7
S'*\xa5\x94RJf\x87@'
p13
tp14
Rp15
tp16
a(g3
(g7
S'\xef\xbd\xf7\xde{\x19\x9d@'
p17
tp18
Rp19
g3
(g7
S':\xe7\x9cs\xce\x85\x9b@'
p20
tp21
Rp22
tp23
aa.