(lp0
S'w_2980'
p1
a(lp2
(cnumpy.core.multiarray
scalar
p3
(cnumpy
dtype
p4
(S'f8'
p5
I0
I1
tp6
Rp7
(I3
S'<'
p8
NNNI-1
I-1
I0
tp9
bS'\xb4\xd6Zk\xad%f@'
p10
tp11
Rp12
g3
(g7
S'\xb4\xd6Zk\xad\xd3\x92@'
p13
tp14
Rp15
tp16
a(g3
(g7
S'\xde{\xef\xbd\xf7\x8d\xad@'
p17
tp18
Rp19
g3
(g7
S'\xae\xb5\xd6Zk\xa4\xaa@'
p20
tp21
Rp22
tp23
aa.