(lp0
S'w_290'
p1
a(lp2
(cnumpy.core.multiarray
scalar
p3
(cnumpy
dtype
p4
(S'f8'
p5
I0
I1
tp6
Rp7
(I3
S'<'
p8
NNNI-1
I-1
I0
tp9
bS't\xce9\xe7\\\xf8\xa5@'
p10
tp11
Rp12
g3
(g7
S'\xdf{\xef\xbd\xb7\x8b\xa0@'
p13
tp14
Rp15
tp16
a(g3
(g7
S'\x11B\x08!\x94\xe5\xb3@'
p17
tp18
Rp19
g3
(g7
S'@\xa5\x94RJ9X@'
p20
tp21
Rp22
tp23
aa.