(lp0
S'w_309'
p1
a(lp2
(cnumpy.core.multiarray
scalar
p3
(cnumpy
dtype
p4
(S'f8'
p5
I0
I1
tp6
Rp7
(I3
S'<'
p8
NNNI-1
I-1
I0
tp9
bS'1\xc6\x18cL\xa7\xa3@'
p10
tp11
Rp12
g3
(g7
S'\x94RJ)%\x83\x8f@'
p13
tp14
Rp15
tp16
a(g3
(g7
S'\xd0Zk\xad\xb5&D@'
p17
tp18
Rp19
g3
(g7
S'\x80RJ)\xa5\xc4H@'
p20
tp21
Rp22
tp23
aa.