(lp0
S'w_3084'
p1
a(lp2
(cnumpy.core.multiarray
scalar
p3
(cnumpy
dtype
p4
(S'f8'
p5
I0
I1
tp6
Rp7
(I3
S'<'
p8
NNNI-1
I-1
I0
tp9
bS'Zk\xad\xb5\xd6\xf4\x9e@'
p10
tp11
Rp12
g3
(g7
S'"\x84\x10B\x88\x8a\xab@'
p13
tp14
Rp15
tp16
a(g3
(g7
S'\x90s\xce9\xe7\xacJ@'
p17
tp18
Rp19
g3
(g7
S'\x80\x8c1\xc6\x18\xa3L@'
p20
tp21
Rp22
tp23
aa.