(lp0
S'w_3011'
p1
a(lp2
(cnumpy.core.multiarray
scalar
p3
(cnumpy
dtype
p4
(S'f8'
p5
I0
I1
tp6
Rp7
(I3
S'<'
p8
NNNI-1
I-1
I0
tp9
bS'b\x8c1\xc6\xd8\xcc\x97@'
p10
tp11
Rp12
g3
(g7
S'XJ)\xa5\x94:w@'
p13
tp14
Rp15
tp16
a(g3
(g7
S'\xc0\x18c\x8c1\xf6A@'
p17
tp18
Rp19
g3
(g7
S'\x85\x10B\x08\xe1\xc0\x9e@'
p20
tp21
Rp22
tp23
aa.