(lp0
S'w_3180'
p1
a(lp2
(cnumpy.core.multiarray
scalar
p3
(cnumpy
dtype
p4
(S'f8'
p5
I0
I1
tp6
Rp7
(I3
S'<'
p8
NNNI-1
I-1
I0
tp9
bS'\x10B\x08!\x84\x00@@'
p10
tp11
Rp12
g3
(g7
S'8\xe7\x9cs\xce\xe3\x85@'
p13
tp14
Rp15
tp16
a(g3
(g7
S'{\xef\xbd\xf7~\xdc\xa4@'
p17
tp18
Rp19
g3
(g7
S'\xc0\xde{\xef\xbd\xc7C@'
p20
tp21
Rp22
tp23
aa.