(lp0
S'w_3168'
p1
a(lp2
(cnumpy.core.multiarray
scalar
p3
(cnumpy
dtype
p4
(S'f8'
p5
I0
I1
tp6
Rp7
(I3
S'<'
p8
NNNI-1
I-1
I0
tp9
bS'\x94RJ)\xa5\x92\x98@'
p10
tp11
Rp12
g3
(g7
S'\n!\x84\x10B\x06\x9e@'
p13
tp14
Rp15
tp16
a(g3
(g7
S'\x19c\x8c1\xc6\x97\xa6@'
p17
tp18
Rp19
g3
(g7
S'\x08!\x84\x10B\x00u@'
p20
tp21
Rp22
tp23
aa.