(lp0
S'w_3234'
p1
a(lp2
(cnumpy.core.multiarray
scalar
p3
(cnumpy
dtype
p4
(S'f8'
p5
I0
I1
tp6
Rp7
(I3
S'<'
p8
NNNI-1
I-1
I0
tp9
bS'\xd6Zk\xad5\xd2\x94@'
p10
tp11
Rp12
g3
(g7
S'\x86\x10B\x08\xa1\xe2\x9e@'
p13
tp14
Rp15
tp16
a(g3
(g7
S'[k\xad\xb5V&\xa2@'
p17
tp18
Rp19
g3
(g7
S't\xce9\xe7\x1c\xd5\x85@'
p20
tp21
Rp22
tp23
aa.