(lp0
S'w_321'
p1
a(lp2
(cnumpy.core.multiarray
scalar
p3
(cnumpy
dtype
p4
(S'f8'
p5
I0
I1
tp6
Rp7
(I3
S'<'
p8
NNNI-1
I-1
I0
tp9
bS'2\xc6\x18c\x8c/\x9b@'
p10
tp11
Rp12
g3
(g7
S'\xc0Zk\xad\xb5\xb6Z@'
p13
tp14
Rp15
tp16
a(g3
(g7
S'\xa8\xb5\xd6Zk\x8dU@'
p17
tp18
Rp19
g3
(g7
S'"\x84\x10B\x08\x1f\x9e@'
p20
tp21
Rp22
tp23
aa.