(lp0
S'w_3380'
p1
a(lp2
(cnumpy.core.multiarray
scalar
p3
(cnumpy
dtype
p4
(S'f8'
p5
I0
I1
tp6
Rp7
(I3
S'<'
p8
NNNI-1
I-1
I0
tp9
bS' \x84\x10BH,\x9c@'
p10
tp11
Rp12
g3
(g7
S'\xb0\xb5\xd6Zk@s@'
p13
tp14
Rp15
tp16
a(g3
(g7
S'\x8c1\xc6\x18#y\xa9@'
p17
tp18
Rp19
g3
(g7
S'\x84\x10B\x08a\xfa\x9d@'
p20
tp21
Rp22
tp23
aa.