(lp0
S'w_3311'
p1
a(lp2
(cnumpy.core.multiarray
scalar
p3
(cnumpy
dtype
p4
(S'f8'
p5
I0
I1
tp6
Rp7
(I3
S'<'
p8
NNNI-1
I-1
I0
tp9
bS'\xf7\xde{\xef\xbd\x17\xa0@'
p10
tp11
Rp12
g3
(g7
S's\xce9\xe7\x9c0\x99@'
p13
tp14
Rp15
tp16
a(g3
(g7
S'\xa0s\xce9\xe7\x0c@@'
p17
tp18
Rp19
g3
(g7
S'J)\xa5\x94\x92\xb8\xa0@'
p20
tp21
Rp22
tp23
aa.