(lp0
S'w_3561'
p1
a(lp2
(cnumpy.core.multiarray
scalar
p3
(cnumpy
dtype
p4
(S'f8'
p5
I0
I1
tp6
Rp7
(I3
S'<'
p8
NNNI-1
I-1
I0
tp9
bS'\xb4\xd6Zkm\xcd\x9b@'
p10
tp11
Rp12
g3
(g7
S'@\x8c1\xc6\x18\x8fU@'
p13
tp14
Rp15
tp16
a(g3
(g7
S'\x9cs\xce9gX\xa7@'
p17
tp18
Rp19
g3
(g7
S'\xad\xb5\xd6Z+^\x97@'
p20
tp21
Rp22
tp23
aa.