(lp0
S'w_3593'
p1
a(lp2
(cnumpy.core.multiarray
scalar
p3
(cnumpy
dtype
p4
(S'f8'
p5
I0
I1
tp6
Rp7
(I3
S'<'
p8
NNNI-1
I-1
I0
tp9
bS'\xf8\xde{\xef\xbd\xcc\xa2@'
p10
tp11
Rp12
g3
(g7
S'PJ)\xa5\x942\x84@'
p13
tp14
Rp15
tp16
a(g3
(g7
S'\xbe\xf7\xde{\xef\x89\x80@'
p17
tp18
Rp19
g3
(g7
S'@\xef\xbd\xf7\xde\xfbA@'
p20
tp21
Rp22
tp23
aa.