(lp0
S'w_3644'
p1
a(lp2
(cnumpy.core.multiarray
scalar
p3
(cnumpy
dtype
p4
(S'f8'
p5
I0
I1
tp6
Rp7
(I3
S'<'
p8
NNNI-1
I-1
I0
tp9
bS'\xe8\x9cs\xcey\\\x99@'
p10
tp11
Rp12
g3
(g7
S'\x94RJ)\xa5\xd6\xa0@'
p13
tp14
Rp15
tp16
a(g3
(g7
S'@\xe7\x9cs\xce\xf1F@'
p17
tp18
Rp19
g3
(g7
S'\xc0\x9cs\xce9\xf7G@'
p20
tp21
Rp22
tp23
aa.