(lp0
S'w_373'
p1
a(lp2
(cnumpy.core.multiarray
scalar
p3
(cnumpy
dtype
p4
(S'f8'
p5
I0
I1
tp6
Rp7
(I3
S'<'
p8
NNNI-1
I-1
I0
tp9
bS' \x84\x10B\x08\xa3\x98@'
p10
tp11
Rp12
g3
(g7
S'\xbe\xf7\xde{o\x03\x9c@'
p13
tp14
Rp15
tp16
a(g3
(g7
S'J)\xa5\x94\x12W\xa5@'
p17
tp18
Rp19
g3
(g7
S'\xe0\x18c\x8c1^_@'
p20
tp21
Rp22
tp23
aa.