(lp0
S'w_3843'
p1
a(lp2
(cnumpy.core.multiarray
scalar
p3
(cnumpy
dtype
p4
(S'f8'
p5
I0
I1
tp6
Rp7
(I3
S'<'
p8
NNNI-1
I-1
I0
tp9
bS'c\x8c1\xc6\x18a\x95@'
p10
tp11
Rp12
g3
(g7
S'\x10B\x08!\x84\x00b@'
p13
tp14
Rp15
tp16
a(g3
(g7
S'\xe0\xde{\xef\xbdw>@'
p17
tp18
Rp19
g3
(g7
S"+\xa5\x94RJ'\x9d@"
p20
tp21
Rp22
tp23
aa.