(lp0
S'w_3879'
p1
a(lp2
(cnumpy.core.multiarray
scalar
p3
(cnumpy
dtype
p4
(S'f8'
p5
I0
I1
tp6
Rp7
(I3
S'<'
p8
NNNI-1
I-1
I0
tp9
bS'\x8c1\xc6\x18#\x19\xa4@'
p10
tp11
Rp12
g3
(g7
S'\x19c\x8c1F\x7f\x91@'
p13
tp14
Rp15
tp16
a(g3
(g7
S'`k\xad\xb5\xd6bO@'
p17
tp18
Rp19
g3
(g7
S'\x00\xe7\x9cs\xce\x197@'
p20
tp21
Rp22
tp23
aa.