(lp0
S'w_3955'
p1
a(lp2
(cnumpy.core.multiarray
scalar
p3
(cnumpy
dtype
p4
(S'f8'
p5
I0
I1
tp6
Rp7
(I3
S'<'
p8
NNNI-1
I-1
I0
tp9
bS'\xbe\xf7\xde{o\xc6\x99@'
p10
tp11
Rp12
g3
(g7
S'\xad\xb5\xd6Z\xeb#\x99@'
p13
tp14
Rp15
tp16
a(g3
(g7
S'\xe0{\xef\xbdw"\xa7@'
p17
tp18
Rp19
g3
(g7
S' B\x08!\x84\xf0S@'
p20
tp21
Rp22
tp23
aa.