(lp0
S'w_4164'
p1
a(lp2
(cnumpy.core.multiarray
scalar
p3
(cnumpy
dtype
p4
(S'f8'
p5
I0
I1
tp6
Rp7
(I3
S'<'
p8
NNNI-1
I-1
I0
tp9
bS't\xce9\xe7\x1c\x0b\x9e@'
p10
tp11
Rp12
g3
(g7
S'\x12B\x08!\x04[\x9a@'
p13
tp14
Rp15
tp16
a(g3
(g7
S' \x84\x10B\xa8Y\xb2@'
p17
tp18
Rp19
g3
(g7
S'\x801\xc6\x18c\xfcZ@'
p20
tp21
Rp22
tp23
aa.