(lp0
S'w_4102'
p1
a(lp2
(cnumpy.core.multiarray
scalar
p3
(cnumpy
dtype
p4
(S'f8'
p5
I0
I1
tp6
Rp7
(I3
S'<'
p8
NNNI-1
I-1
I0
tp9
bS' \x84\x10B\x08\r\x93@'
p10
tp11
Rp12
g3
(g7
S'\x881\xc6\x18c\xeds@'
p13
tp14
Rp15
tp16
a(g3
(g7
S'\xe09\xe7\x9cs\xfe=@'
p17
tp18
Rp19
g3
(g7
S'\x84\x10B\x08\xe1\xf2\x9d@'
p20
tp21
Rp22
tp23
aa.