(lp0
S'w_4227'
p1
a(lp2
(cnumpy.core.multiarray
scalar
p3
(cnumpy
dtype
p4
(S'f8'
p5
I0
I1
tp6
Rp7
(I3
S'<'
p8
NNNI-1
I-1
I0
tp9
bS'\x96RJ)%e\x8e@'
p10
tp11
Rp12
g3
(g7
S'\x18c\x8c1\xc6\xcb\x8e@'
p13
tp14
Rp15
tp16
a(g3
(g7
S'\xb0\xb5\xd6Zk\xfd:@'
p17
tp18
Rp19
g3
(g7
S'\x00\x84\x10B\x08)A@'
p20
tp21
Rp22
tp23
aa.