(lp0
S'w_4292'
p1
a(lp2
(cnumpy.core.multiarray
scalar
p3
(cnumpy
dtype
p4
(S'f8'
p5
I0
I1
tp6
Rp7
(I3
S'<'
p8
NNNI-1
I-1
I0
tp9
bS'\xbe\xf7\xde{\xef\xbb\x96@'
p10
tp11
Rp12
g3
(g7
S'\xb7\xd6Zk\xad\xb3\x9b@'
p13
tp14
Rp15
tp16
a(g3
(g7
S'B\x08!\x84\x10\xc1\xa7@'
p17
tp18
Rp19
g3
(g7
S' \xc6\x18c\x8c\x11V@'
p20
tp21
Rp22
tp23
aa.