(lp0
S'w_4222'
p1
a(lp2
(cnumpy.core.multiarray
scalar
p3
(cnumpy
dtype
p4
(S'f8'
p5
I0
I1
tp6
Rp7
(I3
S'<'
p8
NNNI-1
I-1
I0
tp9
bS'\x95RJ)%\x98\xb1@'
p10
tp11
Rp12
g3
(g7
S'Zk\xad\xb5\xd6\xf8\x9b@'
p13
tp14
Rp15
tp16
a(g3
(g7
S'Xk\xad\xb5\xd6:_@'
p17
tp18
Rp19
g3
(g7
S'\x00\xa5\x94RJ\tS@'
p20
tp21
Rp22
tp23
aa.