(lp0
S'w_4203'
p1
a(lp2
(cnumpy.core.multiarray
scalar
p3
(cnumpy
dtype
p4
(S'f8'
p5
I0
I1
tp6
Rp7
(I3
S'<'
p8
NNNI-1
I-1
I0
tp9
bS'\x9ds\xce9gh\x9a@'
p10
tp11
Rp12
g3
(g7
S'Zk\xad\xb5\xd6]\xa0@'
p13
tp14
Rp15
tp16
a(g3
(g7
S'\x00\xdf{\xef\xbd\x17F@'
p17
tp18
Rp19
g3
(g7
S'\x80\x10B\x08!$K@'
p20
tp21
Rp22
tp23
aa.