(lp0
S'w_4368'
p1
a(lp2
(cnumpy.core.multiarray
scalar
p3
(cnumpy
dtype
p4
(S'f8'
p5
I0
I1
tp6
Rp7
(I3
S'<'
p8
NNNI-1
I-1
I0
tp9
bS'J)\xa5\x94R\xcd\x97@'
p10
tp11
Rp12
g3
(g7
S'*\xa5\x94R\x8a\x0b\x9c@'
p13
tp14
Rp15
tp16
a(g3
(g7
S'\x10B\x08!dz\xa6@'
p17
tp18
Rp19
g3
(g7
S'0\x08!\x84\x10\xa0g@'
p20
tp21
Rp22
tp23
aa.