(lp0
S'w_4497'
p1
a(lp2
(cnumpy.core.multiarray
scalar
p3
(cnumpy
dtype
p4
(S'f8'
p5
I0
I1
tp6
Rp7
(I3
S'<'
p8
NNNI-1
I-1
I0
tp9
bS'\xd6Zk\xad5\x97\x92@'
p10
tp11
Rp12
g3
(g7
S'Yk\xad\xb5VI\x90@'
p13
tp14
Rp15
tp16
a(g3
(g7
S'\x80\xef\xbd\xf7\xde[@@'
p17
tp18
Rp19
g3
(g7
S'@\xad\xb5\xd6Z\xabI@'
p20
tp21
Rp22
tp23
aa.