(lp0
S'w_4467'
p1
a(lp2
(cnumpy.core.multiarray
scalar
p3
(cnumpy
dtype
p4
(S'f8'
p5
I0
I1
tp6
Rp7
(I3
S'<'
p8
NNNI-1
I-1
I0
tp9
bS'|\xef\xbd\xf7\xdey\x95@'
p10
tp11
Rp12
g3
(g7
S'\x12B\x08!\x84\x0c\x8e@'
p13
tp14
Rp15
tp16
a(g3
(g7
S'\xe0\xde{\xef\xbdw>@'
p17
tp18
Rp19
g3
(g7
S'\x80\x10B\x08!D@@'
p20
tp21
Rp22
tp23
aa.