(lp0
S'w_4491'
p1
a(lp2
(cnumpy.core.multiarray
scalar
p3
(cnumpy
dtype
p4
(S'f8'
p5
I0
I1
tp6
Rp7
(I3
S'<'
p8
NNNI-1
I-1
I0
tp9
bS'1\xc6\x18c\x8c/\x98@'
p10
tp11
Rp12
g3
(g7
S'\x00\x00\x00\x00\x00\xf8{@'
p13
tp14
Rp15
tp16
a(g3
(g7
S'\xd6Zk\xad\xb5\xd5\xa6@'
p17
tp18
Rp19
g3
(g7
S'TJ)\xa5\x94P\x9e@'
p20
tp21
Rp22
tp23
aa.