(lp0
S'w_4753'
p1
a(lp2
(cnumpy.core.multiarray
scalar
p3
(cnumpy
dtype
p4
(S'f8'
p5
I0
I1
tp6
Rp7
(I3
S'<'
p8
NNNI-1
I-1
I0
tp9
bS'(\x84\x10B\x08\xc1B@'
p10
tp11
Rp12
g3
(g7
S'VJ)\xa5\x94"\x8f@'
p13
tp14
Rp15
tp16
a(g3
(g7
S'K)\xa5\x94RX\xa8@'
p17
tp18
Rp19
g3
(g7
S'\x80\xe7\x9cs\xce\xb9@@'
p20
tp21
Rp22
tp23
aa.