(lp0
S'w_4742'
p1
a(lp2
(cnumpy.core.multiarray
scalar
p3
(cnumpy
dtype
p4
(S'f8'
p5
I0
I1
tp6
Rp7
(I3
S'<'
p8
NNNI-1
I-1
I0
tp9
bS'\x08!\x84\x10\x82\xb2\x92@'
p10
tp11
Rp12
g3
(g7
S'\xd8Zk\xad\xb5\xaft@'
p13
tp14
Rp15
tp16
a(g3
(g7
S'\x901\xc6\x18cl?@'
p17
tp18
Rp19
g3
(g7
S'\xc6\x18c\x8cq\x1e\x9b@'
p20
tp21
Rp22
tp23
aa.