(lp0
S'w_4862'
p1
a(lp2
(cnumpy.core.multiarray
scalar
p3
(cnumpy
dtype
p4
(S'f8'
p5
I0
I1
tp6
Rp7
(I3
S'<'
p8
NNNI-1
I-1
I0
tp9
bS'b\x8c1\xc6\x98o\x9a@'
p10
tp11
Rp12
g3
(g7
S'\xbe\xf7\xde{o\xd1\x84@'
p13
tp14
Rp15
tp16
a(g3
(g7
S'\x9cs\xce9\x07\xa6\xa7@'
p17
tp18
Rp19
g3
(g7
S'*\xa5\x94R\x8a\xc2\x9f@'
p20
tp21
Rp22
tp23
aa.