(lp0
S'w_4877'
p1
a(lp2
(cnumpy.core.multiarray
scalar
p3
(cnumpy
dtype
p4
(S'f8'
p5
I0
I1
tp6
Rp7
(I3
S'<'
p8
NNNI-1
I-1
I0
tp9
bS'\x0fB\x08!\x04\x8a\xa5@'
p10
tp11
Rp12
g3
(g7
S'\x84\x10B\x08!c\xa4@'
p13
tp14
Rp15
tp16
a(g3
(g7
S'k\xad\xb5\xd6\xda\x15\xb2@'
p17
tp18
Rp19
g3
(g7
S'\xc0\xff\xff\xff\xff/X@'
p20
tp21
Rp22
tp23
aa.