(lp0
S'w_4885'
p1
a(lp2
(cnumpy.core.multiarray
scalar
p3
(cnumpy
dtype
p4
(S'f8'
p5
I0
I1
tp6
Rp7
(I3
S'<'
p8
NNNI-1
I-1
I0
tp9
bS'\xc09\xe7\x9cs\x8e7@'
p10
tp11
Rp12
g3
(g7
S'\x08!\x84\x10BJ\x93@'
p13
tp14
Rp15
tp16
a(g3
(g7
S'k\xad\xb5\xd6\x9a\xa4\xa6@'
p17
tp18
Rp19
g3
(g7
S'\xce9\xe7\x9c3\xd9\x9e@'
p20
tp21
Rp22
tp23
aa.