(lp0
S'w_4913'
p1
a(lp2
(cnumpy.core.multiarray
scalar
p3
(cnumpy
dtype
p4
(S'f8'
p5
I0
I1
tp6
Rp7
(I3
S'<'
p8
NNNI-1
I-1
I0
tp9
bS'\xde{\xef\xbd\xb70\x9a@'
p10
tp11
Rp12
g3
(g7
S'\x9ds\xce9\x87{\xa1@'
p13
tp14
Rp15
tp16
a(g3
(g7
S' \xa5\x94RJ\xf9D@'
p17
tp18
Rp19
g3
(g7
S'p\x8c1\xc6\x181`@'
p20
tp21
Rp22
tp23
aa.