(lp0
S'w_502'
p1
a(lp2
(cnumpy.core.multiarray
scalar
p3
(cnumpy
dtype
p4
(S'f8'
p5
I0
I1
tp6
Rp7
(I3
S'<'
p8
NNNI-1
I-1
I0
tp9
bS'\xb0\xb5\xd6Zku@@'
p10
tp11
Rp12
g3
(g7
S'1\xc6\x18c\xcc\xf1\x90@'
p13
tp14
Rp15
tp16
a(g3
(g7
S'\x19c\x8c1\xe6\xbc\xa9@'
p17
tp18
Rp19
g3
(g7
S'\xb6\xd6Zk-1\xa1@'
p20
tp21
Rp22
tp23
aa.