(lp0
S'w_5016'
p1
a(lp2
(cnumpy.core.multiarray
scalar
p3
(cnumpy
dtype
p4
(S'f8'
p5
I0
I1
tp6
Rp7
(I3
S'<'
p8
NNNI-1
I-1
I0
tp9
bS'b\x8c1\xc6\x18\xed\x92@'
p10
tp11
Rp12
g3
(g7
S'|\xef\xbd\xf7\xde6\x9b@'
p13
tp14
Rp15
tp16
a(g3
(g7
S'\xc0\x18c\x8c1\x060@'
p17
tp18
Rp19
g3
(g7
S'\x80s\xce9\xe7\xdcC@'
p20
tp21
Rp22
tp23
aa.