(lp0
S'w_5133'
p1
a(lp2
(cnumpy.core.multiarray
scalar
p3
(cnumpy
dtype
p4
(S'f8'
p5
I0
I1
tp6
Rp7
(I3
S'<'
p8
NNNI-1
I-1
I0
tp9
bS' \x84\x10B\x08\x01Z@'
p10
tp11
Rp12
g3
(g7
S'c\x8c1\xc6\x18z\xa2@'
p13
tp14
Rp15
tp16
a(g3
(g7
S'\xf8\xde{\xef=\x0b\xb4@'
p17
tp18
Rp19
g3
(g7
S'@1\xc6\x18clP@'
p20
tp21
Rp22
tp23
aa.