(lp0
S'w_5116'
p1
a(lp2
(cnumpy.core.multiarray
scalar
p3
(cnumpy
dtype
p4
(S'f8'
p5
I0
I1
tp6
Rp7
(I3
S'<'
p8
NNNI-1
I-1
I0
tp9
bS'\xad\xb5\xd6ZkQ\x9d@'
p10
tp11
Rp12
g3
(g7
S'\xf6\xde{\xef\xbd\xda\x99@'
p13
tp14
Rp15
tp16
a(g3
(g7
S'\xd6Zk\xad\xb5\x92\xa3@'
p17
tp18
Rp19
g3
(g7
S'\x80\xd6Zk\xadu?@'
p20
tp21
Rp22
tp23
aa.