(lp0
S'w_5112'
p1
a(lp2
(cnumpy.core.multiarray
scalar
p3
(cnumpy
dtype
p4
(S'f8'
p5
I0
I1
tp6
Rp7
(I3
S'<'
p8
NNNI-1
I-1
I0
tp9
bS'p\xad\xb5\xd6Z\x8b?@'
p10
tp11
Rp12
g3
(g7
S'\xa5\x94RJ) \x90@'
p13
tp14
Rp15
tp16
a(g3
(g7
S'\xbe\xf7\xde{/F\xa4@'
p17
tp18
Rp19
g3
(g7
S'\xb6\xd6Zkm9\x9b@'
p20
tp21
Rp22
tp23
aa.