(lp0
S'w_5272'
p1
a(lp2
(cnumpy.core.multiarray
scalar
p3
(cnumpy
dtype
p4
(S'f8'
p5
I0
I1
tp6
Rp7
(I3
S'<'
p8
NNNI-1
I-1
I0
tp9
bS'\xf0\xbd\xf7\xde{<\x93@'
p10
tp11
Rp12
g3
(g7
S'\x9ds\xce9\xe7\x90\x9d@'
p13
tp14
Rp15
tp16
a(g3
(g7
S' \x84\x10B\x08\xe1F@'
p17
tp18
Rp19
g3
(g7
S'\x809\xe7\x9cs\x8e8@'
p20
tp21
Rp22
tp23
aa.