(lp0
S'w_5229'
p1
a(lp2
(cnumpy.core.multiarray
scalar
p3
(cnumpy
dtype
p4
(S'f8'
p5
I0
I1
tp6
Rp7
(I3
S'<'
p8
NNNI-1
I-1
I0
tp9
bS'\xa0s\xce9\xe7\xdcS@'
p10
tp11
Rp12
g3
(g7
S'\x10B\x08!\x84\x07\xa0@'
p13
tp14
Rp15
tp16
a(g3
(g7
S'\x18c\x8c1\x864\xb3@'
p17
tp18
Rp19
g3
(g7
S'\xb6\xd6Zk\rz\xa9@'
p20
tp21
Rp22
tp23
aa.