(lp0
S'w_5578'
p1
a(lp2
(cnumpy.core.multiarray
scalar
p3
(cnumpy
dtype
p4
(S'f8'
p5
I0
I1
tp6
Rp7
(I3
S'<'
p8
NNNI-1
I-1
I0
tp9
bS'\xff\xff\xff\xff\xff\xda\x9d@'
p10
tp11
Rp12
g3
(g7
S'\xfa\xde{\xef\xbd\x81\x88@'
p13
tp14
Rp15
tp16
a(g3
(g7
S'\xd89\xe7\x9cs~K@'
p17
tp18
Rp19
g3
(g7
S'\x94RJ)%;\x9f@'
p20
tp21
Rp22
tp23
aa.