(lp0
S'w_55'
p1
a(lp2
(cnumpy.core.multiarray
scalar
p3
(cnumpy
dtype
p4
(S'f8'
p5
I0
I1
tp6
Rp7
(I3
S'<'
p8
NNNI-1
I-1
I0
tp9
bS'|\xef\xbd\xf7\xdec\x8c@'
p10
tp11
Rp12
g3
(g7
S'\xae\xb5\xd6Zk\xe8\x9b@'
p13
tp14
Rp15
tp16
a(g3
(g7
S' \x84\x10B\x08\xe1:@'
p17
tp18
Rp19
g3
(g7
S'\x80{\xef\xbd\xf7^<@'
p20
tp21
Rp22
tp23
aa.