(lp0
S'w_5850'
p1
a(lp2
(cnumpy.core.multiarray
scalar
p3
(cnumpy
dtype
p4
(S'f8'
p5
I0
I1
tp6
Rp7
(I3
S'<'
p8
NNNI-1
I-1
I0
tp9
bS'l\xad\xb5\xd6\xfa\xa6\xa1@'
p10
tp11
Rp12
g3
(g7
S'b\x8c1\xc6\x18\xe0\x98@'
p13
tp14
Rp15
tp16
a(g3
(g7
S'\xa0s\xce9\xe7\x9cS@'
p17
tp18
Rp19
g3
(g7
S'@\x8c1\xc6\x18+O@'
p20
tp21
Rp22
tp23
aa.