(lp0
S'w_5886'
p1
a(lp2
(cnumpy.core.multiarray
scalar
p3
(cnumpy
dtype
p4
(S'f8'
p5
I0
I1
tp6
Rp7
(I3
S'<'
p8
NNNI-1
I-1
I0
tp9
bS':\xe7\x9cs\xce,s@'
p10
tp11
Rp12
g3
(g7
S'\x18c\x8c1F\x9d\x8a@'
p13
tp14
Rp15
tp16
a(g3
(g7
S'\xcf9\xe7\x9cS7\xa6@'
p17
tp18
Rp19
g3
(g7
S'\x80\x94RJ)\xd5;@'
p20
tp21
Rp22
tp23
aa.