(lp0
S'w_6026'
p1
a(lp2
(cnumpy.core.multiarray
scalar
p3
(cnumpy
dtype
p4
(S'f8'
p5
I0
I1
tp6
Rp7
(I3
S'<'
p8
NNNI-1
I-1
I0
tp9
bS'k\xad\xb5\xd6Z\xc0\x99@'
p10
tp11
Rp12
g3
(g7
S'\xf0{\xef\xbd\xf7\x0e`@'
p13
tp14
Rp15
tp16
a(g3
(g7
S'\xc0\x18c\x8c1fB@'
p17
tp18
Rp19
g3
(g7
S'c\x8c1\xc6\x18\xf4\xa2@'
p20
tp21
Rp22
tp23
aa.