(lp0
S'w_627'
p1
a(lp2
(cnumpy.core.multiarray
scalar
p3
(cnumpy
dtype
p4
(S'f8'
p5
I0
I1
tp6
Rp7
(I3
S'<'
p8
NNNI-1
I-1
I0
tp9
bS'\x00\x00\x00\x00\x80\xa6\x90@'
p10
tp11
Rp12
g3
(g7
S'\x8d1\xc6\x18c"\x9d@'
p13
tp14
Rp15
tp16
a(g3
(g7
S'\xf0\xde{\xef\xbd\xcfC@'
p17
tp18
Rp19
g3
(g7
S'\xc0\xa4\x94RJ\x11B@'
p20
tp21
Rp22
tp23
aa.