(lp0
S'w_6230'
p1
a(lp2
(cnumpy.core.multiarray
scalar
p3
(cnumpy
dtype
p4
(S'f8'
p5
I0
I1
tp6
Rp7
(I3
S'<'
p8
NNNI-1
I-1
I0
tp9
bS'8\xe7\x9cs\xcej\x86@'
p10
tp11
Rp12
g3
(g7
S'!\x84\x10B\x88\x1e\x92@'
p13
tp14
Rp15
tp16
a(g3
(g7
S'\xce9\xe7\x9cS\xa5\xa7@'
p17
tp18
Rp19
g3
(g7
S'\xbe\xf7\xde{/P\xa1@'
p20
tp21
Rp22
tp23
aa.