(lp0
S'w_6226'
p1
a(lp2
(cnumpy.core.multiarray
scalar
p3
(cnumpy
dtype
p4
(S'f8'
p5
I0
I1
tp6
Rp7
(I3
S'<'
p8
NNNI-1
I-1
I0
tp9
bS'\xa6\x94RJ\xe9\xc5\x9e@'
p10
tp11
Rp12
g3
(g7
S'\x00!\x84\x10B0S@'
p13
tp14
Rp15
tp16
a(g3
(g7
S'\xd7Zk\xad\xd5$\xaa@'
p17
tp18
Rp19
g3
(g7
S'*\xa5\x94RJR\xa1@'
p20
tp21
Rp22
tp23
aa.