(lp0
S'w_6368'
p1
a(lp2
(cnumpy.core.multiarray
scalar
p3
(cnumpy
dtype
p4
(S'f8'
p5
I0
I1
tp6
Rp7
(I3
S'<'
p8
NNNI-1
I-1
I0
tp9
bS'\xf7\xde{\xef\xbd\xf5\x92@'
p10
tp11
Rp12
g3
(g7
S'\x96RJ)\xa5\x92\x9f@'
p13
tp14
Rp15
tp16
a(g3
(g7
S'\xb0\xb5\xd6ZkmE@'
p17
tp18
Rp19
g3
(g7
S'\xf0\xbd\xf7\xde{\xdfe@'
p20
tp21
Rp22
tp23
aa.