(lp0
S'w_6327'
p1
a(lp2
(cnumpy.core.multiarray
scalar
p3
(cnumpy
dtype
p4
(S'f8'
p5
I0
I1
tp6
Rp7
(I3
S'<'
p8
NNNI-1
I-1
I0
tp9
bS'\xe6\x9cs\xce9>\x98@'
p10
tp11
Rp12
g3
(g7
S'B\x08!\x84P\xd5\x9e@'
p13
tp14
Rp15
tp16
a(g3
(g7
S'I)\xa5\x94\xf2K\xa8@'
p17
tp18
Rp19
g3
(g7
S'\xa01\xc6\x18c\xa0V@'
p20
tp21
Rp22
tp23
aa.