(lp0
S'w_6498'
p1
a(lp2
(cnumpy.core.multiarray
scalar
p3
(cnumpy
dtype
p4
(S'f8'
p5
I0
I1
tp6
Rp7
(I3
S'<'
p8
NNNI-1
I-1
I0
tp9
bS'\xc5\x18c\x8c1"\x89@'
p10
tp11
Rp12
g3
(g7
S'[k\xad\xb5\xd6\x01\xa1@'
p13
tp14
Rp15
tp16
a(g3
(g7
S'\x00\x00\x00\x00\x80\xb7\xb1@'
p17
tp18
Rp19
g3
(g7
S'@1\xc6\x18clP@'
p20
tp21
Rp22
tp23
aa.