(lp0
S'w_6497'
p1
a(lp2
(cnumpy.core.multiarray
scalar
p3
(cnumpy
dtype
p4
(S'f8'
p5
I0
I1
tp6
Rp7
(I3
S'<'
p8
NNNI-1
I-1
I0
tp9
bS'\xc6\x18c\x8c1\xc4\x92@'
p10
tp11
Rp12
g3
(g7
S':\xe7\x9cs\xce5\x89@'
p13
tp14
Rp15
tp16
a(g3
(g7
S'\xb5\xd6Zk\xad4\xa6@'
p17
tp18
Rp19
g3
(g7
S'\x80Zk\xad\xb5V:@'
p20
tp21
Rp22
tp23
aa.