(lp0
S'w_6526'
p1
a(lp2
(cnumpy.core.multiarray
scalar
p3
(cnumpy
dtype
p4
(S'f8'
p5
I0
I1
tp6
Rp7
(I3
S'<'
p8
NNNI-1
I-1
I0
tp9
bS'\xe0\xde{\xef\xbdw>@'
p10
tp11
Rp12
g3
(g7
S'\x95RJ)\xa5\x92\x93@'
p13
tp14
Rp15
tp16
a(g3
(g7
S'B\x08!\x84\x10\xc1\xa7@'
p17
tp18
Rp19
g3
(g7
S'\xe0{\xef\xbd\xf7\xdc\x9f@'
p20
tp21
Rp22
tp23
aa.