(lp0
S'w_6604'
p1
a(lp2
(cnumpy.core.multiarray
scalar
p3
(cnumpy
dtype
p4
(S'f8'
p5
I0
I1
tp6
Rp7
(I3
S'<'
p8
NNNI-1
I-1
I0
tp9
bS'\xb8\xd6Zk\xad5a@'
p10
tp11
Rp12
g3
(g7
S'\xa4\x94RJ)\x1b\x9d@'
p13
tp14
Rp15
tp16
a(g3
(g7
S':\xe7\x9csN\x06\xb0@'
p17
tp18
Rp19
g3
(g7
S'(\xa5\x94RJ\x19t@'
p20
tp21
Rp22
tp23
aa.