(lp0
S'w_6656'
p1
a(lp2
(cnumpy.core.multiarray
scalar
p3
(cnumpy
dtype
p4
(S'f8'
p5
I0
I1
tp6
Rp7
(I3
S'<'
p8
NNNI-1
I-1
I0
tp9
bS'Zk\xad\xb5\xd6V\x8f@'
p10
tp11
Rp12
g3
(g7
S'\x01\x00\x00\x00\x00\xfe\x92@'
p13
tp14
Rp15
tp16
a(g3
(g7
S'k\xad\xb5\xd6Zj\xa7@'
p17
tp18
Rp19
g3
(g7
S'\x80s\xce9\xe7\\C@'
p20
tp21
Rp22
tp23
aa.