(lp0
S'w_6738'
p1
a(lp2
(cnumpy.core.multiarray
scalar
p3
(cnumpy
dtype
p4
(S'f8'
p5
I0
I1
tp6
Rp7
(I3
S'<'
p8
NNNI-1
I-1
I0
tp9
bS'\x14B\x08!\x84\x18`@'
p10
tp11
Rp12
g3
(g7
S'\x9ds\xce9\xe7\xfe\x92@'
p13
tp14
Rp15
tp16
a(g3
(g7
S'I)\xa5\x94\xd2|\xab@'
p17
tp18
Rp19
g3
(g7
S'\x80\xa5\x94RJ\xc9>@'
p20
tp21
Rp22
tp23
aa.