(lp0
S'w_6777'
p1
a(lp2
(cnumpy.core.multiarray
scalar
p3
(cnumpy
dtype
p4
(S'f8'
p5
I0
I1
tp6
Rp7
(I3
S'<'
p8
NNNI-1
I-1
I0
tp9
bS'\x10B\x08!\x84\x0e\x99@'
p10
tp11
Rp12
g3
(g7
S'\x85\x10B\x08!\x82\x95@'
p13
tp14
Rp15
tp16
a(g3
(g7
S'\x00\x00\x00\x00\x00\xf0g@'
p17
tp18
Rp19
g3
(g7
S'\x80s\xce9\xe7\\C@'
p20
tp21
Rp22
tp23
aa.