(lp0
S'w_6804'
p1
a(lp2
(cnumpy.core.multiarray
scalar
p3
(cnumpy
dtype
p4
(S'f8'
p5
I0
I1
tp6
Rp7
(I3
S'<'
p8
NNNI-1
I-1
I0
tp9
bS'\xd6Zk\xadu\xf1\x95@'
p10
tp11
Rp12
g3
(g7
S'\xe0\xff\xff\xff\xffKP@'
p13
tp14
Rp15
tp16
a(g3
(g7
S'\x10c\x8c1\xc6H?@'
p17
tp18
Rp19
g3
(g7
S'\xb6\xd6Zk\r\x01\xa0@'
p20
tp21
Rp22
tp23
aa.