(lp0
S'w_6992'
p1
a(lp2
(cnumpy.core.multiarray
scalar
p3
(cnumpy
dtype
p4
(S'f8'
p5
I0
I1
tp6
Rp7
(I3
S'<'
p8
NNNI-1
I-1
I0
tp9
bS'\xb4\xd6Zk\xad\xa3w@'
p10
tp11
Rp12
g3
(g7
S'\xf0\xbd\xf7\xde{t\x8c@'
p13
tp14
Rp15
tp16
a(g3
(g7
S'\xa5\x94RJ\xe9\x9d\xa4@'
p17
tp18
Rp19
g3
(g7
S'\x80\xf7\xde{\xef\xbd>@'
p20
tp21
Rp22
tp23
aa.