(lp0
S'w_7044'
p1
a(lp2
(cnumpy.core.multiarray
scalar
p3
(cnumpy
dtype
p4
(S'f8'
p5
I0
I1
tp6
Rp7
(I3
S'<'
p8
NNNI-1
I-1
I0
tp9
bS'\xf7\xde{\xef}\x85\x96@'
p10
tp11
Rp12
g3
(g7
S'\xf0\x9cs\xce9\x1di@'
p13
tp14
Rp15
tp16
a(g3
(g7
S'\xa4\x94RJ\t\xe9\xa9@'
p17
tp18
Rp19
g3
(g7
S'\xf8\xde{\xef}\xf0\xa1@'
p20
tp21
Rp22
tp23
aa.