(lp0
S'w_7011'
p1
a(lp2
(cnumpy.core.multiarray
scalar
p3
(cnumpy
dtype
p4
(S'f8'
p5
I0
I1
tp6
Rp7
(I3
S'<'
p8
NNNI-1
I-1
I0
tp9
bS'B\x08!\x84\x90\x98\x9f@'
p10
tp11
Rp12
g3
(g7
S'\t!\x84\x10\xc2*\xa0@'
p13
tp14
Rp15
tp16
a(g3
(g7
S'\xd7Zk\xad\x95\xb4\xa8@'
p17
tp18
Rp19
g3
(g7
S'\xc0{\xef\xbd\xf7\x96J@'
p20
tp21
Rp22
tp23
aa.