(lp0
S'w_7072'
p1
a(lp2
(cnumpy.core.multiarray
scalar
p3
(cnumpy
dtype
p4
(S'f8'
p5
I0
I1
tp6
Rp7
(I3
S'<'
p8
NNNI-1
I-1
I0
tp9
bS'*\xa5\x94RJJ\x98@'
p10
tp11
Rp12
g3
(g7
S'\xa5\x94RJ\xa9O\xa5@'
p13
tp14
Rp15
tp16
a(g3
(g7
S'P\x08!\x84\x10bI@'
p17
tp18
Rp19
g3
(g7
S'\x80k\xad\xb5\xd6\nX@'
p20
tp21
Rp22
tp23
aa.