(lp0
S'w_713'
p1
a(lp2
(cnumpy.core.multiarray
scalar
p3
(cnumpy
dtype
p4
(S'f8'
p5
I0
I1
tp6
Rp7
(I3
S'<'
p8
NNNI-1
I-1
I0
tp9
bS'\xa6\x94RJ)\xb8\x94@'
p10
tp11
Rp12
g3
(g7
S'\xa4\x94RJ\xa9\xfe\x9b@'
p13
tp14
Rp15
tp16
a(g3
(g7
S'`J)\xa5\x94\xb2?@'
p17
tp18
Rp19
g3
(g7
S'\x901\xc6\x18clu@'
p20
tp21
Rp22
tp23
aa.