(lp0
S'w_7292'
p1
a(lp2
(cnumpy.core.multiarray
scalar
p3
(cnumpy
dtype
p4
(S'f8'
p5
I0
I1
tp6
Rp7
(I3
S'<'
p8
NNNI-1
I-1
I0
tp9
bS'\x8b1\xc6\x18c\x08\x8e@'
p10
tp11
Rp12
g3
(g7
S'RJ)\xa5\x94\x90\x9f@'
p13
tp14
Rp15
tp16
a(g3
(g7
S':\xe7\x9csN\x9d\xb0@'
p17
tp18
Rp19
g3
(g7
S'\xae\xb5\xd6Zk\xa4\xaa@'
p20
tp21
Rp22
tp23
aa.