(lp0
S'w_7270'
p1
a(lp2
(cnumpy.core.multiarray
scalar
p3
(cnumpy
dtype
p4
(S'f8'
p5
I0
I1
tp6
Rp7
(I3
S'<'
p8
NNNI-1
I-1
I0
tp9
bS'\x9ds\xce9\xe7\x9a\x97@'
p10
tp11
Rp12
g3
(g7
S'\xe9\x9cs\xce9\xe5\x9e@'
p13
tp14
Rp15
tp16
a(g3
(g7
S'\x08!\x84\x10B\xe8P@'
p17
tp18
Rp19
g3
(g7
S'\x881\xc6\x18c\x84q@'
p20
tp21
Rp22
tp23
aa.