(lp0
S'w_7341'
p1
a(lp2
(cnumpy.core.multiarray
scalar
p3
(cnumpy
dtype
p4
(S'f8'
p5
I0
I1
tp6
Rp7
(I3
S'<'
p8
NNNI-1
I-1
I0
tp9
bS'\xac\xb5\xd6Zk\xd3\x97@'
p10
tp11
Rp12
g3
(g7
S'\xf0\xde{\xef\xbd\xcfs@'
p13
tp14
Rp15
tp16
a(g3
(g7
S'\x10B\x08!\x84\x0f\xa9@'
p17
tp18
Rp19
g3
(g7
S'J)\xa5\x94R=\xa0@'
p20
tp21
Rp22
tp23
aa.