(lp0
S'w_7347'
p1
a(lp2
(cnumpy.core.multiarray
scalar
p3
(cnumpy
dtype
p4
(S'f8'
p5
I0
I1
tp6
Rp7
(I3
S'<'
p8
NNNI-1
I-1
I0
tp9
bS'|\xef\xbd\xf7~U\xa3@'
p10
tp11
Rp12
g3
(g7
S'(\xa5\x94R\xca\xf5\x8b@'
p13
tp14
Rp15
tp16
a(g3
(g7
S'\x94RJ)%\xfe\x88@'
p17
tp18
Rp19
g3
(g7
S'\x00\xdf{\xef\xbdOC@'
p20
tp21
Rp22
tp23
aa.