(lp0
S'w_7380'
p1
a(lp2
(cnumpy.core.multiarray
scalar
p3
(cnumpy
dtype
p4
(S'f8'
p5
I0
I1
tp6
Rp7
(I3
S'<'
p8
NNNI-1
I-1
I0
tp9
bS'\x08!\x84\x10B\xb7\xa5@'
p10
tp11
Rp12
g3
(g7
S'0)\xa5\x94R\xbao@'
p13
tp14
Rp15
tp16
a(g3
(g7
S'!\x84\x10B\x88\xcc\xb3@'
p17
tp18
Rp19
g3
(g7
S'\xa6\x94RJ),\xa9@'
p20
tp21
Rp22
tp23
aa.