(lp0
S'w_7429'
p1
a(lp2
(cnumpy.core.multiarray
scalar
p3
(cnumpy
dtype
p4
(S'f8'
p5
I0
I1
tp6
Rp7
(I3
S'<'
p8
NNNI-1
I-1
I0
tp9
bS'\x88\x10B\x08!D_@'
p10
tp11
Rp12
g3
(g7
S'\x1cc\x8c1\xc6\xa4\x85@'
p13
tp14
Rp15
tp16
a(g3
(g7
S'\xf8\xde{\xef=\xc1\xaa@'
p17
tp18
Rp19
g3
(g7
S'B\x08!\x84\x10\xf2\xa1@'
p20
tp21
Rp22
tp23
aa.