(lp0
S'w_7656'
p1
a(lp2
(cnumpy.core.multiarray
scalar
p3
(cnumpy
dtype
p4
(S'f8'
p5
I0
I1
tp6
Rp7
(I3
S'<'
p8
NNNI-1
I-1
I0
tp9
bS'\xbd\xf7\xde{\xef\x07\x8a@'
p10
tp11
Rp12
g3
(g7
S'\xf4\xde{\xef\xbd\xcf{@'
p13
tp14
Rp15
tp16
a(g3
(g7
S'\xb0\x94RJ)%7@'
p17
tp18
Rp19
g3
(g7
S'\xcf9\xe7\x9cs\x81\x9e@'
p20
tp21
Rp22
tp23
aa.