(lp0
S'w_7831'
p1
a(lp2
(cnumpy.core.multiarray
scalar
p3
(cnumpy
dtype
p4
(S'f8'
p5
I0
I1
tp6
Rp7
(I3
S'<'
p8
NNNI-1
I-1
I0
tp9
bS'A\x08!\x84\x10\xdd\x9d@'
p10
tp11
Rp12
g3
(g7
S':\xe7\x9csN\x10\x91@'
p13
tp14
Rp15
tp16
a(g3
(g7
S'\x80\x10B\x08!4F@'
p17
tp18
Rp19
g3
(g7
S'\xe8\x9cs\xce9\x80\xa0@'
p20
tp21
Rp22
tp23
aa.