(lp0
S'w_7839'
p1
a(lp2
(cnumpy.core.multiarray
scalar
p3
(cnumpy
dtype
p4
(S'f8'
p5
I0
I1
tp6
Rp7
(I3
S'<'
p8
NNNI-1
I-1
I0
tp9
bS'\xd09\xe7\x9c3\x9c\x9b@'
p10
tp11
Rp12
g3
(g7
S'\x9cs\xce9\xe70\x84@'
p13
tp14
Rp15
tp16
a(g3
(g7
S'\xf0\xde{\xef\xbdg?@'
p17
tp18
Rp19
g3
(g7
S'\x80\x10B\x08!\xc4@@'
p20
tp21
Rp22
tp23
aa.