(lp0
S'w_7905'
p1
a(lp2
(cnumpy.core.multiarray
scalar
p3
(cnumpy
dtype
p4
(S'f8'
p5
I0
I1
tp6
Rp7
(I3
S'<'
p8
NNNI-1
I-1
I0
tp9
bS'\xc0\x18c\x8c1F8@'
p10
tp11
Rp12
g3
(g7
S'2\xc6\x18c\x8c/\x96@'
p13
tp14
Rp15
tp16
a(g3
(g7
S'[k\xad\xb5\xd6\xd9\xa7@'
p17
tp18
Rp19
g3
(g7
S'\xc8\x18c\x8c1\xc4\x9f@'
p20
tp21
Rp22
tp23
aa.