(lp0
S'w_817'
p1
a(lp2
(cnumpy.core.multiarray
scalar
p3
(cnumpy
dtype
p4
(S'f8'
p5
I0
I1
tp6
Rp7
(I3
S'<'
p8
NNNI-1
I-1
I0
tp9
bS'\x08!\x84\x10\xc2\x85\x93@'
p10
tp11
Rp12
g3
(g7
S'!\x84\x10B\x88\x82\xa0@'
p13
tp14
Rp15
tp16
a(g3
(g7
S'\xd09\xe7\x9cs\xc6F@'
p17
tp18
Rp19
g3
(g7
S'\x901\xc6\x18c&l@'
p20
tp21
Rp22
tp23
aa.