(lp0
S'w_8112'
p1
a(lp2
(cnumpy.core.multiarray
scalar
p3
(cnumpy
dtype
p4
(S'f8'
p5
I0
I1
tp6
Rp7
(I3
S'<'
p8
NNNI-1
I-1
I0
tp9
bS'\xe7\x9cs\xce9\xca\x9a@'
p10
tp11
Rp12
g3
(g7
S'\x11B\x08!\x04|\xa0@'
p13
tp14
Rp15
tp16
a(g3
(g7
S'h\x8c1\xc6\x18\x9bQ@'
p17
tp18
Rp19
g3
(g7
S'\xa0\x94RJ)m]@'
p20
tp21
Rp22
tp23
aa.