(lp0
S'w_8237'
p1
a(lp2
(cnumpy.core.multiarray
scalar
p3
(cnumpy
dtype
p4
(S'f8'
p5
I0
I1
tp6
Rp7
(I3
S'<'
p8
NNNI-1
I-1
I0
tp9
bS'\xd49\xe7\x9cs>R@'
p10
tp11
Rp12
g3
(g7
S'\x12B\x08!D\x96\x92@'
p13
tp14
Rp15
tp16
a(g3
(g7
S'\x84\x10B\x08!1\xa6@'
p17
tp18
Rp19
g3
(g7
S'\xc7\x18c\x8c\xb1O\x9f@'
p20
tp21
Rp22
tp23
aa.