(lp0
S'w_8288'
p1
a(lp2
(cnumpy.core.multiarray
scalar
p3
(cnumpy
dtype
p4
(S'f8'
p5
I0
I1
tp6
Rp7
(I3
S'<'
p8
NNNI-1
I-1
I0
tp9
bS'p\xce9\xe7\x9c3K@'
p10
tp11
Rp12
g3
(g7
S'\xef\xbd\xf7\xde{M\x97@'
p13
tp14
Rp15
tp16
a(g3
(g7
S'b\x8c1\xc6\x18`\xaa@'
p17
tp18
Rp19
g3
(g7
S'9\xe7\x9csN\x9a\xa1@'
p20
tp21
Rp22
tp23
aa.