(lp0
S'w_8387'
p1
a(lp2
(cnumpy.core.multiarray
scalar
p3
(cnumpy
dtype
p4
(S'f8'
p5
I0
I1
tp6
Rp7
(I3
S'<'
p8
NNNI-1
I-1
I0
tp9
bS'\x9cs\xce9\xa7S\x90@'
p10
tp11
Rp12
g3
(g7
S'\xf8\xbd\xf7\xde{\xa1q@'
p13
tp14
Rp15
tp16
a(g3
(g7
S'\xd6Zk\xad5\xf5\xa6@'
p17
tp18
Rp19
g3
(g7
S'\x12B\x08!\x04\x8b\x9e@'
p20
tp21
Rp22
tp23
aa.