(lp0
S'w_8421'
p1
a(lp2
(cnumpy.core.multiarray
scalar
p3
(cnumpy
dtype
p4
(S'f8'
p5
I0
I1
tp6
Rp7
(I3
S'<'
p8
NNNI-1
I-1
I0
tp9
bS'\x10B\x08!\x84\x0f\xa0@'
p10
tp11
Rp12
g3
(g7
S'RJ)\xa5\x94N\x86@'
p13
tp14
Rp15
tp16
a(g3
(g7
S'h\xad\xb5\xd6ZK]@'
p17
tp18
Rp19
g3
(g7
S'\x80Zk\xad\xb5V:@'
p20
tp21
Rp22
tp23
aa.