(lp0
S'w_8499'
p1
a(lp2
(cnumpy.core.multiarray
scalar
p3
(cnumpy
dtype
p4
(S'f8'
p5
I0
I1
tp6
Rp7
(I3
S'<'
p8
NNNI-1
I-1
I0
tp9
bS'\x18c\x8c1F\xaf\x98@'
p10
tp11
Rp12
g3
(g7
S'd\x8c1\xc6\xd89\x9e@'
p13
tp14
Rp15
tp16
a(g3
(g7
S'\xdf{\xef\xbdW_\xa5@'
p17
tp18
Rp19
g3
(g7
S'\xb8\xb5\xd6Zk\x85\x7f@'
p20
tp21
Rp22
tp23
aa.