(lp0
S'w_853'
p1
a(lp2
(cnumpy.core.multiarray
scalar
p3
(cnumpy
dtype
p4
(S'f8'
p5
I0
I1
tp6
Rp7
(I3
S'<'
p8
NNNI-1
I-1
I0
tp9
bS'[k\xad\xb5\xd6X\x90@'
p10
tp11
Rp12
g3
(g7
S'\xa6\x94RJ)\xa3\x94@'
p13
tp14
Rp15
tp16
a(g3
(g7
S'\xe7\x9cs\xce9\xe6\xa7@'
p17
tp18
Rp19
g3
(g7
S'\xe0{\xef\xbd\xf7\xdc\x9f@'
p20
tp21
Rp22
tp23
aa.