(lp0
S'w_8628'
p1
a(lp2
(cnumpy.core.multiarray
scalar
p3
(cnumpy
dtype
p4
(S'f8'
p5
I0
I1
tp6
Rp7
(I3
S'<'
p8
NNNI-1
I-1
I0
tp9
bS'J)\xa5\x94Rh\x9c@'
p10
tp11
Rp12
g3
(g7
S':\xe7\x9cs\xce\xb8\xa2@'
p13
tp14
Rp15
tp16
a(g3
(g7
S'k\xad\xb5\xd6\xda\x1a\xb3@'
p17
tp18
Rp19
g3
(g7
S'"\x84\x10B\x08\xf8\xaa@'
p20
tp21
Rp22
tp23
aa.