(lp0
S'w_8715'
p1
a(lp2
(cnumpy.core.multiarray
scalar
p3
(cnumpy
dtype
p4
(S'f8'
p5
I0
I1
tp6
Rp7
(I3
S'<'
p8
NNNI-1
I-1
I0
tp9
bS'\x1ac\x8c1\xc6\xe1\xa4@'
p10
tp11
Rp12
g3
(g7
S'\x80\x10B\x08!\x8cp@'
p13
tp14
Rp15
tp16
a(g3
(g7
S' c\x8c1\xc68R@'
p17
tp18
Rp19
g3
(g7
S'\x18c\x8c1\xc6\xcd\xaa@'
p20
tp21
Rp22
tp23
aa.