(lp0
S'w_8820'
p1
a(lp2
(cnumpy.core.multiarray
scalar
p3
(cnumpy
dtype
p4
(S'f8'
p5
I0
I1
tp6
Rp7
(I3
S'<'
p8
NNNI-1
I-1
I0
tp9
bS'\xb0\xd6Zk\xad\xa9[@'
p10
tp11
Rp12
g3
(g7
S'b\x8c1\xc6\x98\xea\x8a@'
p13
tp14
Rp15
tp16
a(g3
(g7
S'0\xc6\x18c\x8cg\x9f@'
p17
tp18
Rp19
g3
(g7
S' k\xad\xb5\xd6\xe2C@'
p20
tp21
Rp22
tp23
aa.