(lp0
S'w_8837'
p1
a(lp2
(cnumpy.core.multiarray
scalar
p3
(cnumpy
dtype
p4
(S'f8'
p5
I0
I1
tp6
Rp7
(I3
S'<'
p8
NNNI-1
I-1
I0
tp9
bS'\x9ds\xce9\xe7\x1b\xa6@'
p10
tp11
Rp12
g3
(g7
S'\xc6\x18c\x8c1\xc2\x8a@'
p13
tp14
Rp15
tp16
a(g3
(g7
S'\x84\x10B\x08!\x80\x84@'
p17
tp18
Rp19
g3
(g7
S'\x80s\xce9\xe7\\C@'
p20
tp21
Rp22
tp23
aa.