(lp0
S'w_8891'
p1
a(lp2
(cnumpy.core.multiarray
scalar
p3
(cnumpy
dtype
p4
(S'f8'
p5
I0
I1
tp6
Rp7
(I3
S'<'
p8
NNNI-1
I-1
I0
tp9
bS'\xef\xbd\xf7\xde{\xed\x96@'
p10
tp11
Rp12
g3
(g7
S'\x02\x00\x00\x00\x00\xfe\x9e@'
p13
tp14
Rp15
tp16
a(g3
(g7
S'\xc0\x18c\x8c1F8@'
p17
tp18
Rp19
g3
(g7
S'\xc0\xd6Zk\xaduF@'
p20
tp21
Rp22
tp23
aa.