(lp0
S'w_8958'
p1
a(lp2
(cnumpy.core.multiarray
scalar
p3
(cnumpy
dtype
p4
(S'f8'
p5
I0
I1
tp6
Rp7
(I3
S'<'
p8
NNNI-1
I-1
I0
tp9
bS'\x12B\x08!\x04v\x9e@'
p10
tp11
Rp12
g3
(g7
S'\xf0\x9cs\xce9gi@'
p13
tp14
Rp15
tp16
a(g3
(g7
S't\xce9\xe7\\\xb9\xaa@'
p17
tp18
Rp19
g3
(g7
S'\x00\x00\x00\x00\x80\x01\x9c@'
p20
tp21
Rp22
tp23
aa.