(lp0
S'w_8927'
p1
a(lp2
(cnumpy.core.multiarray
scalar
p3
(cnumpy
dtype
p4
(S'f8'
p5
I0
I1
tp6
Rp7
(I3
S'<'
p8
NNNI-1
I-1
I0
tp9
bS'\x86\x10B\x08\xa1\xfb\x94@'
p10
tp11
Rp12
g3
(g7
S'\x94RJ)\xe5\x9b\x9f@'
p13
tp14
Rp15
tp16
a(g3
(g7
S'\x88\xef\xbd\xf7\xdeCV@'
p17
tp18
Rp19
g3
(g7
S'\xb0\xb5\xd6Zk\x15r@'
p20
tp21
Rp22
tp23
aa.