(lp0
S'w_892'
p1
a(lp2
(cnumpy.core.multiarray
scalar
p3
(cnumpy
dtype
p4
(S'f8'
p5
I0
I1
tp6
Rp7
(I3
S'<'
p8
NNNI-1
I-1
I0
tp9
bS'\xff\xff\xff\xff\x7fS\x8e@'
p10
tp11
Rp12
g3
(g7
S'\xd6Zk\xad\xb5\xe7\x88@'
p13
tp14
Rp15
tp16
a(g3
(g7
S'\x19c\x8c1\xc6\xe0\xa7@'
p17
tp18
Rp19
g3
(g7
S'\xc0\x18c\x8c1\xe6L@'
p20
tp21
Rp22
tp23
aa.