(lp0
S'w_8947'
p1
a(lp2
(cnumpy.core.multiarray
scalar
p3
(cnumpy
dtype
p4
(S'f8'
p5
I0
I1
tp6
Rp7
(I3
S'<'
p8
NNNI-1
I-1
I0
tp9
bS'2\xc6\x18c\x8c/\x9b@'
p10
tp11
Rp12
g3
(g7
S';\xe7\x9cs\xce7\x95@'
p13
tp14
Rp15
tp16
a(g3
(g7
S'\xe7\x9cs\xce9f\xa6@'
p17
tp18
Rp19
g3
(g7
S'\xd0Zk\xad\xb5\xc6b@'
p20
tp21
Rp22
tp23
aa.