(lp0
S'w_9014'
p1
a(lp2
(cnumpy.core.multiarray
scalar
p3
(cnumpy
dtype
p4
(S'f8'
p5
I0
I1
tp6
Rp7
(I3
S'<'
p8
NNNI-1
I-1
I0
tp9
bS'8\xe7\x9cs\xce)g@'
p10
tp11
Rp12
g3
(g7
S'\xe8\x9cs\xce9\xe5\x95@'
p13
tp14
Rp15
tp16
a(g3
(g7
S'\x8c1\xc6\x18c\x0b\xa2@'
p17
tp18
Rp19
g3
(g7
S'\x96RJ)\xa5\x92\x9f@'
p20
tp21
Rp22
tp23
aa.