(lp0
S'w_9194'
p1
a(lp2
(cnumpy.core.multiarray
scalar
p3
(cnumpy
dtype
p4
(S'f8'
p5
I0
I1
tp6
Rp7
(I3
S'<'
p8
NNNI-1
I-1
I0
tp9
bS'\xc6\x18c\x8c1\xc2\x88@'
p10
tp11
Rp12
g3
(g7
S'2\xc6\x18c\x8c/\x90@'
p13
tp14
Rp15
tp16
a(g3
(g7
S':\xe7\x9cs\xce8\xa4@'
p17
tp18
Rp19
g3
(g7
S'\xaf\xb5\xd6Zk\xab\x9f@'
p20
tp21
Rp22
tp23
aa.