(lp0
S'w_9124'
p1
a(lp2
(cnumpy.core.multiarray
scalar
p3
(cnumpy
dtype
p4
(S'f8'
p5
I0
I1
tp6
Rp7
(I3
S'<'
p8
NNNI-1
I-1
I0
tp9
bS'J)\xa5\x9423\xaa@'
p10
tp11
Rp12
g3
(g7
S'\x96RJ)\xc5\xd3\xaa@'
p13
tp14
Rp15
tp16
a(g3
(g7
S'\xa5\x94RJ\xb9\t\xb5@'
p17
tp18
Rp19
g3
(g7
S'\x80\x8c1\xc6\x187Q@'
p20
tp21
Rp22
tp23
aa.