(lp0
S'w_9257'
p1
a(lp2
(cnumpy.core.multiarray
scalar
p3
(cnumpy
dtype
p4
(S'f8'
p5
I0
I1
tp6
Rp7
(I3
S'<'
p8
NNNI-1
I-1
I0
tp9
bS'\x19c\x8c1\xc6\xd3\x9b@'
p10
tp11
Rp12
g3
(g7
S'>\x08!\x84\x10\xb2\x86@'
p13
tp14
Rp15
tp16
a(g3
(g7
S'\x8e1\xc6\x18cSt@'
p17
tp18
Rp19
g3
(g7
S'\xb6\xd6Zk\xcd\xd6\xa0@'
p20
tp21
Rp22
tp23
aa.