(lp0
S'w_9204'
p1
a(lp2
(cnumpy.core.multiarray
scalar
p3
(cnumpy
dtype
p4
(S'f8'
p5
I0
I1
tp6
Rp7
(I3
S'<'
p8
NNNI-1
I-1
I0
tp9
bS'*\xa5\x94RJ\n\x8c@'
p10
tp11
Rp12
g3
(g7
S'\xbd\xf7\xde{\xef\xc2\x92@'
p13
tp14
Rp15
tp16
a(g3
(g7
S'J)\xa5\x94\x127\xa6@'
p17
tp18
Rp19
g3
(g7
S'\xcf9\xe7\x9c\xb3\x19\xa0@'
p20
tp21
Rp22
tp23
aa.