(lp0
S'w_9448'
p1
a(lp2
(cnumpy.core.multiarray
scalar
p3
(cnumpy
dtype
p4
(S'f8'
p5
I0
I1
tp6
Rp7
(I3
S'<'
p8
NNNI-1
I-1
I0
tp9
bS'K)\xa5\x94R\xcc\x80@'
p10
tp11
Rp12
g3
(g7
S'H)\xa5\x94\xd2F\x8f@'
p13
tp14
Rp15
tp16
a(g3
(g7
S'\x19c\x8c1&\xaa\xa6@'
p17
tp18
Rp19
g3
(g7
S'l\xad\xb5\xd6\xba\x86\xa0@'
p20
tp21
Rp22
tp23
aa.