(lp0
S'w_949'
p1
a(lp2
(cnumpy.core.multiarray
scalar
p3
(cnumpy
dtype
p4
(S'f8'
p5
I0
I1
tp6
Rp7
(I3
S'<'
p8
NNNI-1
I-1
I0
tp9
bS'\xbe\xf7\xde{o\x86\xb1@'
p10
tp11
Rp12
g3
(g7
S'\xfe\xff\xff\xff\xffG\x92@'
p13
tp14
Rp15
tp16
a(g3
(g7
S'\x10B\x08!\x84l\x98@'
p17
tp18
Rp19
g3
(g7
S'@\xad\xb5\xd6Z\xbbQ@'
p20
tp21
Rp22
tp23
aa.