(lp0
S'w_9588'
p1
a(lp2
(cnumpy.core.multiarray
scalar
p3
(cnumpy
dtype
p4
(S'f8'
p5
I0
I1
tp6
Rp7
(I3
S'<'
p8
NNNI-1
I-1
I0
tp9
bS'j\xad\xb5\xd6\x1a\xac\x94@'
p10
tp11
Rp12
g3
(g7
S'\xa5\x94RJ\xc9\n\xa0@'
p13
tp14
Rp15
tp16
a(g3
(g7
S'\xe0\xbd\xf7\xde{\xbfB@'
p17
tp18
Rp19
g3
(g7
S'\xc09\xe7\x9cs&X@'
p20
tp21
Rp22
tp23
aa.