(lp0
S'w_9504'
p1
a(lp2
(cnumpy.core.multiarray
scalar
p3
(cnumpy
dtype
p4
(S'f8'
p5
I0
I1
tp6
Rp7
(I3
S'<'
p8
NNNI-1
I-1
I0
tp9
bS'\xe8\x9cs\xce\xf9\xb4\xa2@'
p10
tp11
Rp12
g3
(g7
S'\x00\xb5\xd6Zk\xadM@'
p13
tp14
Rp15
tp16
a(g3
(g7
S'`J)\xa5\x94\xbaK@'
p17
tp18
Rp19
g3
(g7
S'9\xe7\x9cs\x0e\x9e\xac@'
p20
tp21
Rp22
tp23
aa.