(lp0
S'w_9560'
p1
a(lp2
(cnumpy.core.multiarray
scalar
p3
(cnumpy
dtype
p4
(S'f8'
p5
I0
I1
tp6
Rp7
(I3
S'<'
p8
NNNI-1
I-1
I0
tp9
bS'\x9ds\xce9g\xd6\x98@'
p10
tp11
Rp12
g3
(g7
S'\xe8\xbd\xf7\xde{cx@'
p13
tp14
Rp15
tp16
a(g3
(g7
S'0\xa5\x94RJi7@'
p17
tp18
Rp19
g3
(g7
S'\xee\xbd\xf7\xde\xfb1\x9e@'
p20
tp21
Rp22
tp23
aa.