(lp0
S'w_9683'
p1
a(lp2
(cnumpy.core.multiarray
scalar
p3
(cnumpy
dtype
p4
(S'f8'
p5
I0
I1
tp6
Rp7
(I3
S'<'
p8
NNNI-1
I-1
I0
tp9
bS'r\xce9\xe7\x9c\x17y@'
p10
tp11
Rp12
g3
(g7
S'B\x08!\x84\x10l\x8e@'
p13
tp14
Rp15
tp16
a(g3
(g7
S'0\xc6\x18c\xac1\xa5@'
p17
tp18
Rp19
g3
(g7
S'\xde{\xef\xbdw<\xa1@'
p20
tp21
Rp22
tp23
aa.