(lp0
S'w_9722'
p1
a(lp2
(cnumpy.core.multiarray
scalar
p3
(cnumpy
dtype
p4
(S'f8'
p5
I0
I1
tp6
Rp7
(I3
S'<'
p8
NNNI-1
I-1
I0
tp9
bS'B\x08!\x84\xd0U\x92@'
p10
tp11
Rp12
g3
(g7
S'\x00\x00\x00\x00\x00h\x8f@'
p13
tp14
Rp15
tp16
a(g3
(g7
S'1\xc6\x18c,T\xa7@'
p17
tp18
Rp19
g3
(g7
S'\xe8\x9cs\xce9J\x9f@'
p20
tp21
Rp22
tp23
aa.