(lp0
S'w_9726'
p1
a(lp2
(cnumpy.core.multiarray
scalar
p3
(cnumpy
dtype
p4
(S'f8'
p5
I0
I1
tp6
Rp7
(I3
S'<'
p8
NNNI-1
I-1
I0
tp9
bS'\x11B\x08!\x04\xe8\x96@'
p10
tp11
Rp12
g3
(g7
S'(\xa5\x94RJ\x87r@'
p13
tp14
Rp15
tp16
a(g3
(g7
S'\xb6\xd6Zk-V\xaa@'
p17
tp18
Rp19
g3
(g7
S'[k\xad\xb5\xf6\t\xa1@'
p20
tp21
Rp22
tp23
aa.