(lp0
S'w_9857'
p1
a(lp2
(cnumpy.core.multiarray
scalar
p3
(cnumpy
dtype
p4
(S'f8'
p5
I0
I1
tp6
Rp7
(I3
S'<'
p8
NNNI-1
I-1
I0
tp9
bS'\x84\x10B\x08\xe1*\x97@'
p10
tp11
Rp12
g3
(g7
S'\xa6\x94RJ):\x9d@'
p13
tp14
Rp15
tp16
a(g3
(g7
S'\x10c\x8c1\xc6`@@'
p17
tp18
Rp19
g3
(g7
S'\xa0\xd6Zk\xad\xadR@'
p20
tp21
Rp22
tp23
aa.