(lp0
S'w_9840'
p1
a(lp2
(cnumpy.core.multiarray
scalar
p3
(cnumpy
dtype
p4
(S'f8'
p5
I0
I1
tp6
Rp7
(I3
S'<'
p8
NNNI-1
I-1
I0
tp9
bS'\x8b1\xc6\x18\xe3\xbd\xa3@'
p10
tp11
Rp12
g3
(g7
S'\xef\xbd\xf7\xde;$\x95@'
p13
tp14
Rp15
tp16
a(g3
(g7
S'\x0fB\x08!\x84E\x86@'
p17
tp18
Rp19
g3
(g7
S'\x00\x9ds\xce9\x07M@'
p20
tp21
Rp22
tp23
aa.