(lp0
S'w_9947'
p1
a(lp2
(cnumpy.core.multiarray
scalar
p3
(cnumpy
dtype
p4
(S'f8'
p5
I0
I1
tp6
Rp7
(I3
S'<'
p8
NNNI-1
I-1
I0
tp9
bS'c\x8c1\xc68\xb4\xa8@'
p10
tp11
Rp12
g3
(g7
S'j\xad\xb5\xd6\xda\x15\x99@'
p13
tp14
Rp15
tp16
a(g3
(g7
S'\xc6\x18c\x8c1\x8e\x95@'
p17
tp18
Rp19
g3
(g7
S'\x00|\xef\xbd\xf7\xde@@'
p20
tp21
Rp22
tp23
aa.