(lp0
S'w_9988'
p1
a(lp2
(cnumpy.core.multiarray
scalar
p3
(cnumpy
dtype
p4
(S'f8'
p5
I0
I1
tp6
Rp7
(I3
S'<'
p8
NNNI-1
I-1
I0
tp9
bS'Zk\xad\xb5\x16\x07\xa7@'
p10
tp11
Rp12
g3
(g7
S'\x06!\x84\x10B\xb6\x8f@'
p13
tp14
Rp15
tp16
a(g3
(g7
S'\x00\x00\x00\x00@\xe9\x90@'
p17
tp18
Rp19
g3
(g7
S'\xc0\x83\x10B\x08aB@'
p20
tp21
Rp22
tp23
aa.